Archive member included to satisfy reference by file (symbol)

c:/siliconlabs/simplicitystudio/v5/developer/toolchains/gnu_arm/12.2.rel1_2023.7/bin/../lib/gcc/arm-none-eabi/12.2.1/thumb/v8-m.main+fp/hard\libgcc.a(_aeabi_ldivmod.o)
                              ./gecko_sdk_4.5.0/platform/emlib/src/em_eusart.o (__aeabi_ldivmod)
c:/siliconlabs/simplicitystudio/v5/developer/toolchains/gnu_arm/12.2.rel1_2023.7/bin/../lib/gcc/arm-none-eabi/12.2.1/thumb/v8-m.main+fp/hard\libgcc.a(_aeabi_uldivmod.o)
                              ./gecko_sdk_4.5.0/platform/emlib/src/em_eusart.o (__aeabi_uldivmod)
c:/siliconlabs/simplicitystudio/v5/developer/toolchains/gnu_arm/12.2.rel1_2023.7/bin/../lib/gcc/arm-none-eabi/12.2.1/thumb/v8-m.main+fp/hard\libgcc.a(_udivmoddi4.o)
                              c:/siliconlabs/simplicitystudio/v5/developer/toolchains/gnu_arm/12.2.rel1_2023.7/bin/../lib/gcc/arm-none-eabi/12.2.1/thumb/v8-m.main+fp/hard\libgcc.a(_aeabi_ldivmod.o) (__udivmoddi4)
c:/siliconlabs/simplicitystudio/v5/developer/toolchains/gnu_arm/12.2.rel1_2023.7/bin/../lib/gcc/arm-none-eabi/12.2.1/thumb/v8-m.main+fp/hard\libgcc.a(_dvmd_tls.o)
                              c:/siliconlabs/simplicitystudio/v5/developer/toolchains/gnu_arm/12.2.rel1_2023.7/bin/../lib/gcc/arm-none-eabi/12.2.1/thumb/v8-m.main+fp/hard\libgcc.a(_aeabi_ldivmod.o) (__aeabi_ldiv0)
c:/siliconlabs/simplicitystudio/v5/developer/toolchains/gnu_arm/12.2.rel1_2023.7/bin/../lib/gcc/arm-none-eabi/12.2.1/thumb/v8-m.main+fp/hard\libc_nano.a(libc_a-exit.o)
                              c:/siliconlabs/simplicitystudio/v5/developer/toolchains/gnu_arm/12.2.rel1_2023.7/bin/../lib/gcc/arm-none-eabi/12.2.1/thumb/v8-m.main+fp/hard/crt0.o (exit)
c:/siliconlabs/simplicitystudio/v5/developer/toolchains/gnu_arm/12.2.rel1_2023.7/bin/../lib/gcc/arm-none-eabi/12.2.1/thumb/v8-m.main+fp/hard\libc_nano.a(libc_a-ctype_.o)
                              ./gecko_sdk_4.5.0/platform/common/src/sl_string.o (_ctype_)
c:/siliconlabs/simplicitystudio/v5/developer/toolchains/gnu_arm/12.2.rel1_2023.7/bin/../lib/gcc/arm-none-eabi/12.2.1/thumb/v8-m.main+fp/hard\libc_nano.a(libc_a-findfp.o)
                              c:/siliconlabs/simplicitystudio/v5/developer/toolchains/gnu_arm/12.2.rel1_2023.7/bin/../lib/gcc/arm-none-eabi/12.2.1/thumb/v8-m.main+fp/hard\libc_nano.a(libc_a-exit.o) (__stdio_exit_handler)
c:/siliconlabs/simplicitystudio/v5/developer/toolchains/gnu_arm/12.2.rel1_2023.7/bin/../lib/gcc/arm-none-eabi/12.2.1/thumb/v8-m.main+fp/hard\libc_nano.a(libc_a-fwalk.o)
                              c:/siliconlabs/simplicitystudio/v5/developer/toolchains/gnu_arm/12.2.rel1_2023.7/bin/../lib/gcc/arm-none-eabi/12.2.1/thumb/v8-m.main+fp/hard\libc_nano.a(libc_a-findfp.o) (_fwalk_sglue)
c:/siliconlabs/simplicitystudio/v5/developer/toolchains/gnu_arm/12.2.rel1_2023.7/bin/../lib/gcc/arm-none-eabi/12.2.1/thumb/v8-m.main+fp/hard\libc_nano.a(libc_a-printf.o)
                              ./app.o (printf)
c:/siliconlabs/simplicitystudio/v5/developer/toolchains/gnu_arm/12.2.rel1_2023.7/bin/../lib/gcc/arm-none-eabi/12.2.1/thumb/v8-m.main+fp/hard\libc_nano.a(libc_a-stdio.o)
                              c:/siliconlabs/simplicitystudio/v5/developer/toolchains/gnu_arm/12.2.rel1_2023.7/bin/../lib/gcc/arm-none-eabi/12.2.1/thumb/v8-m.main+fp/hard\libc_nano.a(libc_a-findfp.o) (__sread)
c:/siliconlabs/simplicitystudio/v5/developer/toolchains/gnu_arm/12.2.rel1_2023.7/bin/../lib/gcc/arm-none-eabi/12.2.1/thumb/v8-m.main+fp/hard\libc_nano.a(libc_a-vprintf.o)
                              ./gecko_sdk_4.5.0/platform/service/iostream/src/sl_iostream.o (vprintf)
c:/siliconlabs/simplicitystudio/v5/developer/toolchains/gnu_arm/12.2.rel1_2023.7/bin/../lib/gcc/arm-none-eabi/12.2.1/thumb/v8-m.main+fp/hard\libc_nano.a(libc_a-memset.o)
                              c:/siliconlabs/simplicitystudio/v5/developer/toolchains/gnu_arm/12.2.rel1_2023.7/bin/../lib/gcc/arm-none-eabi/12.2.1/thumb/v8-m.main+fp/hard/crt0.o (memset)
c:/siliconlabs/simplicitystudio/v5/developer/toolchains/gnu_arm/12.2.rel1_2023.7/bin/../lib/gcc/arm-none-eabi/12.2.1/thumb/v8-m.main+fp/hard\libc_nano.a(libc_a-closer.o)
                              c:/siliconlabs/simplicitystudio/v5/developer/toolchains/gnu_arm/12.2.rel1_2023.7/bin/../lib/gcc/arm-none-eabi/12.2.1/thumb/v8-m.main+fp/hard\libc_nano.a(libc_a-stdio.o) (_close_r)
c:/siliconlabs/simplicitystudio/v5/developer/toolchains/gnu_arm/12.2.rel1_2023.7/bin/../lib/gcc/arm-none-eabi/12.2.1/thumb/v8-m.main+fp/hard\libc_nano.a(libc_a-reent.o)
                              c:/siliconlabs/simplicitystudio/v5/developer/toolchains/gnu_arm/12.2.rel1_2023.7/bin/../lib/gcc/arm-none-eabi/12.2.1/thumb/v8-m.main+fp/hard\libc_nano.a(libc_a-closer.o) (errno)
c:/siliconlabs/simplicitystudio/v5/developer/toolchains/gnu_arm/12.2.rel1_2023.7/bin/../lib/gcc/arm-none-eabi/12.2.1/thumb/v8-m.main+fp/hard\libc_nano.a(libc_a-impure.o)
                              c:/siliconlabs/simplicitystudio/v5/developer/toolchains/gnu_arm/12.2.rel1_2023.7/bin/../lib/gcc/arm-none-eabi/12.2.1/thumb/v8-m.main+fp/hard\libc_nano.a(libc_a-printf.o) (_impure_ptr)
c:/siliconlabs/simplicitystudio/v5/developer/toolchains/gnu_arm/12.2.rel1_2023.7/bin/../lib/gcc/arm-none-eabi/12.2.1/thumb/v8-m.main+fp/hard\libc_nano.a(libc_a-lseekr.o)
                              c:/siliconlabs/simplicitystudio/v5/developer/toolchains/gnu_arm/12.2.rel1_2023.7/bin/../lib/gcc/arm-none-eabi/12.2.1/thumb/v8-m.main+fp/hard\libc_nano.a(libc_a-stdio.o) (_lseek_r)
c:/siliconlabs/simplicitystudio/v5/developer/toolchains/gnu_arm/12.2.rel1_2023.7/bin/../lib/gcc/arm-none-eabi/12.2.1/thumb/v8-m.main+fp/hard\libc_nano.a(libc_a-readr.o)
                              c:/siliconlabs/simplicitystudio/v5/developer/toolchains/gnu_arm/12.2.rel1_2023.7/bin/../lib/gcc/arm-none-eabi/12.2.1/thumb/v8-m.main+fp/hard\libc_nano.a(libc_a-stdio.o) (_read_r)
c:/siliconlabs/simplicitystudio/v5/developer/toolchains/gnu_arm/12.2.rel1_2023.7/bin/../lib/gcc/arm-none-eabi/12.2.1/thumb/v8-m.main+fp/hard\libc_nano.a(libc_a-writer.o)
                              c:/siliconlabs/simplicitystudio/v5/developer/toolchains/gnu_arm/12.2.rel1_2023.7/bin/../lib/gcc/arm-none-eabi/12.2.1/thumb/v8-m.main+fp/hard\libc_nano.a(libc_a-stdio.o) (_write_r)
c:/siliconlabs/simplicitystudio/v5/developer/toolchains/gnu_arm/12.2.rel1_2023.7/bin/../lib/gcc/arm-none-eabi/12.2.1/thumb/v8-m.main+fp/hard\libc_nano.a(libc_a-init.o)
                              c:/siliconlabs/simplicitystudio/v5/developer/toolchains/gnu_arm/12.2.rel1_2023.7/bin/../lib/gcc/arm-none-eabi/12.2.1/thumb/v8-m.main+fp/hard/crt0.o (__libc_init_array)
c:/siliconlabs/simplicitystudio/v5/developer/toolchains/gnu_arm/12.2.rel1_2023.7/bin/../lib/gcc/arm-none-eabi/12.2.1/thumb/v8-m.main+fp/hard\libc_nano.a(libc_a-lock.o)
                              c:/siliconlabs/simplicitystudio/v5/developer/toolchains/gnu_arm/12.2.rel1_2023.7/bin/../lib/gcc/arm-none-eabi/12.2.1/thumb/v8-m.main+fp/hard\libc_nano.a(libc_a-findfp.o) (__retarget_lock_init_recursive)
c:/siliconlabs/simplicitystudio/v5/developer/toolchains/gnu_arm/12.2.rel1_2023.7/bin/../lib/gcc/arm-none-eabi/12.2.1/thumb/v8-m.main+fp/hard\libc_nano.a(libc_a-memcpy-stub.o)
                              ./gecko_sdk_4.5.0/platform/emdrv/uartdrv/src/uartdrv.o (memcpy)
c:/siliconlabs/simplicitystudio/v5/developer/toolchains/gnu_arm/12.2.rel1_2023.7/bin/../lib/gcc/arm-none-eabi/12.2.1/thumb/v8-m.main+fp/hard\libc_nano.a(libc_a-freer.o)
                              c:/siliconlabs/simplicitystudio/v5/developer/toolchains/gnu_arm/12.2.rel1_2023.7/bin/../lib/gcc/arm-none-eabi/12.2.1/thumb/v8-m.main+fp/hard\libc_nano.a(libc_a-reent.o) (_free_r)
c:/siliconlabs/simplicitystudio/v5/developer/toolchains/gnu_arm/12.2.rel1_2023.7/bin/../lib/gcc/arm-none-eabi/12.2.1/thumb/v8-m.main+fp/hard\libc_nano.a(libc_a-mallocr.o)
                              c:/siliconlabs/simplicitystudio/v5/developer/toolchains/gnu_arm/12.2.rel1_2023.7/bin/../lib/gcc/arm-none-eabi/12.2.1/thumb/v8-m.main+fp/hard\libc_nano.a(libc_a-findfp.o) (_malloc_r)
c:/siliconlabs/simplicitystudio/v5/developer/toolchains/gnu_arm/12.2.rel1_2023.7/bin/../lib/gcc/arm-none-eabi/12.2.1/thumb/v8-m.main+fp/hard\libc_nano.a(libc_a-mlock.o)
                              c:/siliconlabs/simplicitystudio/v5/developer/toolchains/gnu_arm/12.2.rel1_2023.7/bin/../lib/gcc/arm-none-eabi/12.2.1/thumb/v8-m.main+fp/hard\libc_nano.a(libc_a-freer.o) (__malloc_lock)
c:/siliconlabs/simplicitystudio/v5/developer/toolchains/gnu_arm/12.2.rel1_2023.7/bin/../lib/gcc/arm-none-eabi/12.2.1/thumb/v8-m.main+fp/hard\libc_nano.a(libc_a-nano-vfprintf.o)
                              c:/siliconlabs/simplicitystudio/v5/developer/toolchains/gnu_arm/12.2.rel1_2023.7/bin/../lib/gcc/arm-none-eabi/12.2.1/thumb/v8-m.main+fp/hard\libc_nano.a(libc_a-printf.o) (_vfprintf_r)
c:/siliconlabs/simplicitystudio/v5/developer/toolchains/gnu_arm/12.2.rel1_2023.7/bin/../lib/gcc/arm-none-eabi/12.2.1/thumb/v8-m.main+fp/hard\libc_nano.a(libc_a-nano-vfprintf_i.o)
                              c:/siliconlabs/simplicitystudio/v5/developer/toolchains/gnu_arm/12.2.rel1_2023.7/bin/../lib/gcc/arm-none-eabi/12.2.1/thumb/v8-m.main+fp/hard\libc_nano.a(libc_a-nano-vfprintf.o) (_printf_i)
c:/siliconlabs/simplicitystudio/v5/developer/toolchains/gnu_arm/12.2.rel1_2023.7/bin/../lib/gcc/arm-none-eabi/12.2.1/thumb/v8-m.main+fp/hard\libc_nano.a(libc_a-fflush.o)
                              c:/siliconlabs/simplicitystudio/v5/developer/toolchains/gnu_arm/12.2.rel1_2023.7/bin/../lib/gcc/arm-none-eabi/12.2.1/thumb/v8-m.main+fp/hard\libc_nano.a(libc_a-findfp.o) (_fflush_r)
c:/siliconlabs/simplicitystudio/v5/developer/toolchains/gnu_arm/12.2.rel1_2023.7/bin/../lib/gcc/arm-none-eabi/12.2.1/thumb/v8-m.main+fp/hard\libc_nano.a(libc_a-fvwrite.o)
                              c:/siliconlabs/simplicitystudio/v5/developer/toolchains/gnu_arm/12.2.rel1_2023.7/bin/../lib/gcc/arm-none-eabi/12.2.1/thumb/v8-m.main+fp/hard\libc_nano.a(libc_a-nano-vfprintf.o) (__sfvwrite_r)
c:/siliconlabs/simplicitystudio/v5/developer/toolchains/gnu_arm/12.2.rel1_2023.7/bin/../lib/gcc/arm-none-eabi/12.2.1/thumb/v8-m.main+fp/hard\libc_nano.a(libc_a-wbuf.o)
                              c:/siliconlabs/simplicitystudio/v5/developer/toolchains/gnu_arm/12.2.rel1_2023.7/bin/../lib/gcc/arm-none-eabi/12.2.1/thumb/v8-m.main+fp/hard\libc_nano.a(libc_a-nano-vfprintf.o) (__swbuf_r)
c:/siliconlabs/simplicitystudio/v5/developer/toolchains/gnu_arm/12.2.rel1_2023.7/bin/../lib/gcc/arm-none-eabi/12.2.1/thumb/v8-m.main+fp/hard\libc_nano.a(libc_a-wsetup.o)
                              c:/siliconlabs/simplicitystudio/v5/developer/toolchains/gnu_arm/12.2.rel1_2023.7/bin/../lib/gcc/arm-none-eabi/12.2.1/thumb/v8-m.main+fp/hard\libc_nano.a(libc_a-nano-vfprintf.o) (__swsetup_r)
c:/siliconlabs/simplicitystudio/v5/developer/toolchains/gnu_arm/12.2.rel1_2023.7/bin/../lib/gcc/arm-none-eabi/12.2.1/thumb/v8-m.main+fp/hard\libc_nano.a(libc_a-memmove.o)
                              c:/siliconlabs/simplicitystudio/v5/developer/toolchains/gnu_arm/12.2.rel1_2023.7/bin/../lib/gcc/arm-none-eabi/12.2.1/thumb/v8-m.main+fp/hard\libc_nano.a(libc_a-fvwrite.o) (memmove)
c:/siliconlabs/simplicitystudio/v5/developer/toolchains/gnu_arm/12.2.rel1_2023.7/bin/../lib/gcc/arm-none-eabi/12.2.1/thumb/v8-m.main+fp/hard\libc_nano.a(libc_a-sbrkr.o)
                              c:/siliconlabs/simplicitystudio/v5/developer/toolchains/gnu_arm/12.2.rel1_2023.7/bin/../lib/gcc/arm-none-eabi/12.2.1/thumb/v8-m.main+fp/hard\libc_nano.a(libc_a-mallocr.o) (_sbrk_r)
c:/siliconlabs/simplicitystudio/v5/developer/toolchains/gnu_arm/12.2.rel1_2023.7/bin/../lib/gcc/arm-none-eabi/12.2.1/thumb/v8-m.main+fp/hard\libc_nano.a(libc_a-memchr-stub.o)
                              c:/siliconlabs/simplicitystudio/v5/developer/toolchains/gnu_arm/12.2.rel1_2023.7/bin/../lib/gcc/arm-none-eabi/12.2.1/thumb/v8-m.main+fp/hard\libc_nano.a(libc_a-nano-vfprintf.o) (memchr)
c:/siliconlabs/simplicitystudio/v5/developer/toolchains/gnu_arm/12.2.rel1_2023.7/bin/../lib/gcc/arm-none-eabi/12.2.1/thumb/v8-m.main+fp/hard\libc_nano.a(libc_a-reallocr.o)
                              c:/siliconlabs/simplicitystudio/v5/developer/toolchains/gnu_arm/12.2.rel1_2023.7/bin/../lib/gcc/arm-none-eabi/12.2.1/thumb/v8-m.main+fp/hard\libc_nano.a(libc_a-fvwrite.o) (_realloc_r)
c:/siliconlabs/simplicitystudio/v5/developer/toolchains/gnu_arm/12.2.rel1_2023.7/bin/../lib/gcc/arm-none-eabi/12.2.1/thumb/v8-m.main+fp/hard\libc_nano.a(libc_a-makebuf.o)
                              c:/siliconlabs/simplicitystudio/v5/developer/toolchains/gnu_arm/12.2.rel1_2023.7/bin/../lib/gcc/arm-none-eabi/12.2.1/thumb/v8-m.main+fp/hard\libc_nano.a(libc_a-wsetup.o) (__smakebuf_r)
c:/siliconlabs/simplicitystudio/v5/developer/toolchains/gnu_arm/12.2.rel1_2023.7/bin/../lib/gcc/arm-none-eabi/12.2.1/thumb/v8-m.main+fp/hard\libc_nano.a(libc_a-fstatr.o)
                              c:/siliconlabs/simplicitystudio/v5/developer/toolchains/gnu_arm/12.2.rel1_2023.7/bin/../lib/gcc/arm-none-eabi/12.2.1/thumb/v8-m.main+fp/hard\libc_nano.a(libc_a-makebuf.o) (_fstat_r)
c:/siliconlabs/simplicitystudio/v5/developer/toolchains/gnu_arm/12.2.rel1_2023.7/bin/../lib/gcc/arm-none-eabi/12.2.1/thumb/v8-m.main+fp/hard\libc_nano.a(libc_a-isattyr.o)
                              c:/siliconlabs/simplicitystudio/v5/developer/toolchains/gnu_arm/12.2.rel1_2023.7/bin/../lib/gcc/arm-none-eabi/12.2.1/thumb/v8-m.main+fp/hard\libc_nano.a(libc_a-makebuf.o) (_isatty_r)
c:/siliconlabs/simplicitystudio/v5/developer/toolchains/gnu_arm/12.2.rel1_2023.7/bin/../lib/gcc/arm-none-eabi/12.2.1/thumb/v8-m.main+fp/hard\libc_nano.a(libc_a-msizer.o)
                              c:/siliconlabs/simplicitystudio/v5/developer/toolchains/gnu_arm/12.2.rel1_2023.7/bin/../lib/gcc/arm-none-eabi/12.2.1/thumb/v8-m.main+fp/hard\libc_nano.a(libc_a-reallocr.o) (_malloc_usable_size_r)

Discarded input sections

 .text          0x00000000        0x0 c:/siliconlabs/simplicitystudio/v5/developer/toolchains/gnu_arm/12.2.rel1_2023.7/bin/../lib/gcc/arm-none-eabi/12.2.1/thumb/v8-m.main+fp/hard/crti.o
 .data          0x00000000        0x0 c:/siliconlabs/simplicitystudio/v5/developer/toolchains/gnu_arm/12.2.rel1_2023.7/bin/../lib/gcc/arm-none-eabi/12.2.1/thumb/v8-m.main+fp/hard/crti.o
 .bss           0x00000000        0x0 c:/siliconlabs/simplicitystudio/v5/developer/toolchains/gnu_arm/12.2.rel1_2023.7/bin/../lib/gcc/arm-none-eabi/12.2.1/thumb/v8-m.main+fp/hard/crti.o
 .text          0x00000000        0x0 c:/siliconlabs/simplicitystudio/v5/developer/toolchains/gnu_arm/12.2.rel1_2023.7/bin/../lib/gcc/arm-none-eabi/12.2.1/thumb/v8-m.main+fp/hard/crtbegin.o
 .data          0x00000000        0x0 c:/siliconlabs/simplicitystudio/v5/developer/toolchains/gnu_arm/12.2.rel1_2023.7/bin/../lib/gcc/arm-none-eabi/12.2.1/thumb/v8-m.main+fp/hard/crtbegin.o
 .bss           0x00000000        0x0 c:/siliconlabs/simplicitystudio/v5/developer/toolchains/gnu_arm/12.2.rel1_2023.7/bin/../lib/gcc/arm-none-eabi/12.2.1/thumb/v8-m.main+fp/hard/crtbegin.o
 .rodata.all_implied_fbits
                0x00000000       0x24 c:/siliconlabs/simplicitystudio/v5/developer/toolchains/gnu_arm/12.2.rel1_2023.7/bin/../lib/gcc/arm-none-eabi/12.2.1/thumb/v8-m.main+fp/hard/crtbegin.o
 .data.__dso_handle
                0x00000000        0x4 c:/siliconlabs/simplicitystudio/v5/developer/toolchains/gnu_arm/12.2.rel1_2023.7/bin/../lib/gcc/arm-none-eabi/12.2.1/thumb/v8-m.main+fp/hard/crtbegin.o
 .data          0x00000000        0x0 c:/siliconlabs/simplicitystudio/v5/developer/toolchains/gnu_arm/12.2.rel1_2023.7/bin/../lib/gcc/arm-none-eabi/12.2.1/thumb/v8-m.main+fp/hard/crt0.o
 .bss           0x00000000        0x0 c:/siliconlabs/simplicitystudio/v5/developer/toolchains/gnu_arm/12.2.rel1_2023.7/bin/../lib/gcc/arm-none-eabi/12.2.1/thumb/v8-m.main+fp/hard/crt0.o
 .ARM.extab     0x00000000        0x0 c:/siliconlabs/simplicitystudio/v5/developer/toolchains/gnu_arm/12.2.rel1_2023.7/bin/../lib/gcc/arm-none-eabi/12.2.1/thumb/v8-m.main+fp/hard/crt0.o
 .text          0x00000000        0x0 ./app.o
 .data          0x00000000        0x0 ./app.o
 .bss           0x00000000        0x0 ./app.o
 .text          0x00000000        0x0 ./main.o
 .data          0x00000000        0x0 ./main.o
 .bss           0x00000000        0x0 ./main.o
 .text          0x00000000        0x0 ./autogen/sl_board_default_init.o
 .data          0x00000000        0x0 ./autogen/sl_board_default_init.o
 .bss           0x00000000        0x0 ./autogen/sl_board_default_init.o
 .text          0x00000000        0x0 ./autogen/sl_device_init_clocks.o
 .data          0x00000000        0x0 ./autogen/sl_device_init_clocks.o
 .bss           0x00000000        0x0 ./autogen/sl_device_init_clocks.o
 .text          0x00000000        0x0 ./autogen/sl_event_handler.o
 .data          0x00000000        0x0 ./autogen/sl_event_handler.o
 .bss           0x00000000        0x0 ./autogen/sl_event_handler.o
 .text.sl_iostream_init_instances
                0x00000000        0x2 ./autogen/sl_event_handler.o
 .text          0x00000000        0x0 ./autogen/sl_iostream_handles.o
 .data          0x00000000        0x0 ./autogen/sl_iostream_handles.o
 .bss           0x00000000        0x0 ./autogen/sl_iostream_handles.o
 .text.sl_iostream_get_handle
                0x00000000        0x4 ./autogen/sl_iostream_handles.o
 .rodata.sl_iostream_instances_count
                0x00000000        0x4 ./autogen/sl_iostream_handles.o
 .bss.sl_iostream_instances_info
                0x00000000        0x0 ./autogen/sl_iostream_handles.o
 .debug_info    0x00000000      0x285 ./autogen/sl_iostream_handles.o
 .debug_abbrev  0x00000000      0x12f ./autogen/sl_iostream_handles.o
 .debug_loc     0x00000000       0x25 ./autogen/sl_iostream_handles.o
 .debug_aranges
                0x00000000       0x20 ./autogen/sl_iostream_handles.o
 .debug_ranges  0x00000000       0x10 ./autogen/sl_iostream_handles.o
 .debug_line    0x00000000      0x2b2 ./autogen/sl_iostream_handles.o
 .debug_str     0x00000000      0x2ef ./autogen/sl_iostream_handles.o
 .comment       0x00000000       0x46 ./autogen/sl_iostream_handles.o
 .debug_frame   0x00000000       0x20 ./autogen/sl_iostream_handles.o
 .ARM.attributes
                0x00000000       0x3a ./autogen/sl_iostream_handles.o
 .text          0x00000000        0x0 ./autogen/sl_power_manager_handler.o
 .data          0x00000000        0x0 ./autogen/sl_power_manager_handler.o
 .bss           0x00000000        0x0 ./autogen/sl_power_manager_handler.o
 .text          0x00000000        0x0 ./autogen/sl_simple_button_instances.o
 .data          0x00000000        0x0 ./autogen/sl_simple_button_instances.o
 .bss           0x00000000        0x0 ./autogen/sl_simple_button_instances.o
 .text.sl_simple_button_poll_instances
                0x00000000        0xc ./autogen/sl_simple_button_instances.o
 .rodata.simple_button_count
                0x00000000        0x1 ./autogen/sl_simple_button_instances.o
 .text          0x00000000        0x0 ./autogen/sl_simple_led_instances.o
 .data          0x00000000        0x0 ./autogen/sl_simple_led_instances.o
 .bss           0x00000000        0x0 ./autogen/sl_simple_led_instances.o
 .data.sl_simple_led_array
                0x00000000        0x4 ./autogen/sl_simple_led_instances.o
 .text          0x00000000        0x0 ./autogen/sl_uartdrv_init.o
 .data          0x00000000        0x0 ./autogen/sl_uartdrv_init.o
 .bss           0x00000000        0x0 ./autogen/sl_uartdrv_init.o
 .text          0x00000000        0x0 ./gecko_sdk_4.5.0/app/common/util/app_button_press/app_button_press.o
 .data          0x00000000        0x0 ./gecko_sdk_4.5.0/app/common/util/app_button_press/app_button_press.o
 .bss           0x00000000        0x0 ./gecko_sdk_4.5.0/app/common/util/app_button_press/app_button_press.o
 .text.app_button_press_enable
                0x00000000       0x2c ./gecko_sdk_4.5.0/app/common/util/app_button_press/app_button_press.o
 .text.app_button_press_disable
                0x00000000       0x1c ./gecko_sdk_4.5.0/app/common/util/app_button_press/app_button_press.o
 .text          0x00000000        0x0 ./gecko_sdk_4.5.0/hardware/board/src/sl_board_control_gpio.o
 .data          0x00000000        0x0 ./gecko_sdk_4.5.0/hardware/board/src/sl_board_control_gpio.o
 .bss           0x00000000        0x0 ./gecko_sdk_4.5.0/hardware/board/src/sl_board_control_gpio.o
 .text.sl_board_enable_vcom
                0x00000000        0x4 ./gecko_sdk_4.5.0/hardware/board/src/sl_board_control_gpio.o
 .text.sl_board_enable_display
                0x00000000        0x4 ./gecko_sdk_4.5.0/hardware/board/src/sl_board_control_gpio.o
 .text.sl_board_disable_display
                0x00000000        0x4 ./gecko_sdk_4.5.0/hardware/board/src/sl_board_control_gpio.o
 .rodata.sl_board_enable_sensor.str1.1
                0x00000000       0x5e ./gecko_sdk_4.5.0/hardware/board/src/sl_board_control_gpio.o
 .text.sl_board_enable_sensor
                0x00000000       0x54 ./gecko_sdk_4.5.0/hardware/board/src/sl_board_control_gpio.o
 .text.sl_board_disable_sensor
                0x00000000       0x60 ./gecko_sdk_4.5.0/hardware/board/src/sl_board_control_gpio.o
 .text.sl_board_enable_memory
                0x00000000       0x28 ./gecko_sdk_4.5.0/hardware/board/src/sl_board_control_gpio.o
 .text.sl_board_disable_memory
                0x00000000       0x28 ./gecko_sdk_4.5.0/hardware/board/src/sl_board_control_gpio.o
 .text.sl_board_enable_oscillator
                0x00000000       0x1c ./gecko_sdk_4.5.0/hardware/board/src/sl_board_control_gpio.o
 .text.sl_board_disable_oscillator
                0x00000000       0x1c ./gecko_sdk_4.5.0/hardware/board/src/sl_board_control_gpio.o
 .text          0x00000000        0x0 ./gecko_sdk_4.5.0/hardware/board/src/sl_board_init.o
 .data          0x00000000        0x0 ./gecko_sdk_4.5.0/hardware/board/src/sl_board_init.o
 .bss           0x00000000        0x0 ./gecko_sdk_4.5.0/hardware/board/src/sl_board_init.o
 .text          0x00000000        0x0 ./gecko_sdk_4.5.0/hardware/driver/configuration_over_swo/src/sl_cos.o
 .data          0x00000000        0x0 ./gecko_sdk_4.5.0/hardware/driver/configuration_over_swo/src/sl_cos.o
 .bss           0x00000000        0x0 ./gecko_sdk_4.5.0/hardware/driver/configuration_over_swo/src/sl_cos.o
 .text.sl_cos_config_pti
                0x00000000       0x24 ./gecko_sdk_4.5.0/hardware/driver/configuration_over_swo/src/sl_cos.o
 .text.sl_cos_config_vcom
                0x00000000       0x1c ./gecko_sdk_4.5.0/hardware/driver/configuration_over_swo/src/sl_cos.o
 .text          0x00000000        0x0 ./gecko_sdk_4.5.0/platform/Device/SiliconLabs/EFR32BG22/Source/startup_efr32bg22.o
 .data          0x00000000        0x0 ./gecko_sdk_4.5.0/platform/Device/SiliconLabs/EFR32BG22/Source/startup_efr32bg22.o
 .bss           0x00000000        0x0 ./gecko_sdk_4.5.0/platform/Device/SiliconLabs/EFR32BG22/Source/startup_efr32bg22.o
 .text          0x00000000        0x0 ./gecko_sdk_4.5.0/platform/Device/SiliconLabs/EFR32BG22/Source/system_efr32bg22.o
 .data          0x00000000        0x0 ./gecko_sdk_4.5.0/platform/Device/SiliconLabs/EFR32BG22/Source/system_efr32bg22.o
 .bss           0x00000000        0x0 ./gecko_sdk_4.5.0/platform/Device/SiliconLabs/EFR32BG22/Source/system_efr32bg22.o
 .text.SystemHFRCODPLLClockSet
                0x00000000        0xc ./gecko_sdk_4.5.0/platform/Device/SiliconLabs/EFR32BG22/Source/system_efr32bg22.o
 .text.SystemLFXOClockSet
                0x00000000        0xc ./gecko_sdk_4.5.0/platform/Device/SiliconLabs/EFR32BG22/Source/system_efr32bg22.o
 .text          0x00000000        0x0 ./gecko_sdk_4.5.0/platform/common/src/sl_assert.o
 .data          0x00000000        0x0 ./gecko_sdk_4.5.0/platform/common/src/sl_assert.o
 .bss           0x00000000        0x0 ./gecko_sdk_4.5.0/platform/common/src/sl_assert.o
 .text          0x00000000        0x0 ./gecko_sdk_4.5.0/platform/common/src/sl_slist.o
 .data          0x00000000        0x0 ./gecko_sdk_4.5.0/platform/common/src/sl_slist.o
 .bss           0x00000000        0x0 ./gecko_sdk_4.5.0/platform/common/src/sl_slist.o
 .rodata.sl_slist_push.str1.1
                0x00000000       0x52 ./gecko_sdk_4.5.0/platform/common/src/sl_slist.o
 .text.sl_slist_push
                0x00000000       0x20 ./gecko_sdk_4.5.0/platform/common/src/sl_slist.o
 .text.sl_slist_push_back
                0x00000000       0x24 ./gecko_sdk_4.5.0/platform/common/src/sl_slist.o
 .text.sl_slist_pop
                0x00000000       0x20 ./gecko_sdk_4.5.0/platform/common/src/sl_slist.o
 .text.sl_slist_insert
                0x00000000       0x20 ./gecko_sdk_4.5.0/platform/common/src/sl_slist.o
 .text.sl_slist_remove
                0x00000000       0x28 ./gecko_sdk_4.5.0/platform/common/src/sl_slist.o
 .text.sl_slist_sort
                0x00000000       0x50 ./gecko_sdk_4.5.0/platform/common/src/sl_slist.o
 .text          0x00000000        0x0 ./gecko_sdk_4.5.0/platform/common/src/sl_stdio.o
 .data          0x00000000        0x0 ./gecko_sdk_4.5.0/platform/common/src/sl_stdio.o
 .bss           0x00000000        0x0 ./gecko_sdk_4.5.0/platform/common/src/sl_stdio.o
 .text.sl_putchar
                0x00000000       0x18 ./gecko_sdk_4.5.0/platform/common/src/sl_stdio.o
 .text.sl_putchar_std_wrapper
                0x00000000       0x16 ./gecko_sdk_4.5.0/platform/common/src/sl_stdio.o
 .text.sl_getchar
                0x00000000        0x8 ./gecko_sdk_4.5.0/platform/common/src/sl_stdio.o
 .text.sl_getchar_std_wrapper
                0x00000000       0x1c ./gecko_sdk_4.5.0/platform/common/src/sl_stdio.o
 .debug_info    0x00000000      0x2db ./gecko_sdk_4.5.0/platform/common/src/sl_stdio.o
 .debug_abbrev  0x00000000      0x15e ./gecko_sdk_4.5.0/platform/common/src/sl_stdio.o
 .debug_loc     0x00000000      0x132 ./gecko_sdk_4.5.0/platform/common/src/sl_stdio.o
 .debug_aranges
                0x00000000       0x38 ./gecko_sdk_4.5.0/platform/common/src/sl_stdio.o
 .debug_ranges  0x00000000       0x28 ./gecko_sdk_4.5.0/platform/common/src/sl_stdio.o
 .debug_line    0x00000000      0x346 ./gecko_sdk_4.5.0/platform/common/src/sl_stdio.o
 .debug_str     0x00000000      0x2ea ./gecko_sdk_4.5.0/platform/common/src/sl_stdio.o
 .comment       0x00000000       0x46 ./gecko_sdk_4.5.0/platform/common/src/sl_stdio.o
 .debug_frame   0x00000000       0x6c ./gecko_sdk_4.5.0/platform/common/src/sl_stdio.o
 .ARM.attributes
                0x00000000       0x3a ./gecko_sdk_4.5.0/platform/common/src/sl_stdio.o
 .text          0x00000000        0x0 ./gecko_sdk_4.5.0/platform/common/src/sl_string.o
 .data          0x00000000        0x0 ./gecko_sdk_4.5.0/platform/common/src/sl_string.o
 .bss           0x00000000        0x0 ./gecko_sdk_4.5.0/platform/common/src/sl_string.o
 .text.sl_strcpy_s
                0x00000000       0x22 ./gecko_sdk_4.5.0/platform/common/src/sl_string.o
 .text.sl_strnlen
                0x00000000       0x16 ./gecko_sdk_4.5.0/platform/common/src/sl_string.o
 .text.sl_strlen
                0x00000000        0x8 ./gecko_sdk_4.5.0/platform/common/src/sl_string.o
 .text.sl_strcat_s
                0x00000000       0x26 ./gecko_sdk_4.5.0/platform/common/src/sl_string.o
 .text.sl_str_is_empty
                0x00000000       0x10 ./gecko_sdk_4.5.0/platform/common/src/sl_string.o
 .text.sl_strcasecmp
                0x00000000       0x44 ./gecko_sdk_4.5.0/platform/common/src/sl_string.o
 .text.sl_memrchr
                0x00000000       0x84 ./gecko_sdk_4.5.0/platform/common/src/sl_string.o
 .debug_info    0x00000000      0x49c ./gecko_sdk_4.5.0/platform/common/src/sl_string.o
 .debug_abbrev  0x00000000      0x243 ./gecko_sdk_4.5.0/platform/common/src/sl_string.o
 .debug_loc     0x00000000      0x71f ./gecko_sdk_4.5.0/platform/common/src/sl_string.o
 .debug_aranges
                0x00000000       0x50 ./gecko_sdk_4.5.0/platform/common/src/sl_string.o
 .debug_ranges  0x00000000       0xb0 ./gecko_sdk_4.5.0/platform/common/src/sl_string.o
 .debug_line    0x00000000      0x512 ./gecko_sdk_4.5.0/platform/common/src/sl_string.o
 .debug_str     0x00000000      0x30c ./gecko_sdk_4.5.0/platform/common/src/sl_string.o
 .comment       0x00000000       0x46 ./gecko_sdk_4.5.0/platform/common/src/sl_string.o
 .debug_frame   0x00000000       0xb8 ./gecko_sdk_4.5.0/platform/common/src/sl_string.o
 .ARM.attributes
                0x00000000       0x3a ./gecko_sdk_4.5.0/platform/common/src/sl_string.o
 .text          0x00000000        0x0 ./gecko_sdk_4.5.0/platform/common/src/sl_syscalls.o
 .data          0x00000000        0x0 ./gecko_sdk_4.5.0/platform/common/src/sl_syscalls.o
 .bss           0x00000000        0x0 ./gecko_sdk_4.5.0/platform/common/src/sl_syscalls.o
 .text._close   0x00000000        0x6 ./gecko_sdk_4.5.0/platform/common/src/sl_syscalls.o
 .text._exit    0x00000000        0x2 ./gecko_sdk_4.5.0/platform/common/src/sl_syscalls.o
 .text._fstat   0x00000000        0x4 ./gecko_sdk_4.5.0/platform/common/src/sl_syscalls.o
 .text._getpid  0x00000000        0x4 ./gecko_sdk_4.5.0/platform/common/src/sl_syscalls.o
 .text._isatty  0x00000000        0x4 ./gecko_sdk_4.5.0/platform/common/src/sl_syscalls.o
 .text._kill    0x00000000        0x6 ./gecko_sdk_4.5.0/platform/common/src/sl_syscalls.o
 .text._lseek   0x00000000        0x4 ./gecko_sdk_4.5.0/platform/common/src/sl_syscalls.o
 .text._read    0x00000000        0x4 ./gecko_sdk_4.5.0/platform/common/src/sl_syscalls.o
 .text._write   0x00000000        0x4 ./gecko_sdk_4.5.0/platform/common/src/sl_syscalls.o
 .text._gettimeofday
                0x00000000        0x4 ./gecko_sdk_4.5.0/platform/common/src/sl_syscalls.o
 .debug_info    0x00000000      0x306 ./gecko_sdk_4.5.0/platform/common/src/sl_syscalls.o
 .debug_abbrev  0x00000000      0x143 ./gecko_sdk_4.5.0/platform/common/src/sl_syscalls.o
 .debug_loc     0x00000000      0x118 ./gecko_sdk_4.5.0/platform/common/src/sl_syscalls.o
 .debug_aranges
                0x00000000       0x68 ./gecko_sdk_4.5.0/platform/common/src/sl_syscalls.o
 .debug_ranges  0x00000000       0x58 ./gecko_sdk_4.5.0/platform/common/src/sl_syscalls.o
 .debug_line    0x00000000      0x1a5 ./gecko_sdk_4.5.0/platform/common/src/sl_syscalls.o
 .debug_str     0x00000000      0x290 ./gecko_sdk_4.5.0/platform/common/src/sl_syscalls.o
 .comment       0x00000000       0x46 ./gecko_sdk_4.5.0/platform/common/src/sl_syscalls.o
 .debug_frame   0x00000000       0xb0 ./gecko_sdk_4.5.0/platform/common/src/sl_syscalls.o
 .ARM.attributes
                0x00000000       0x3a ./gecko_sdk_4.5.0/platform/common/src/sl_syscalls.o
 .text          0x00000000        0x0 ./gecko_sdk_4.5.0/platform/common/toolchain/src/sl_memory.o
 .data          0x00000000        0x0 ./gecko_sdk_4.5.0/platform/common/toolchain/src/sl_memory.o
 .bss           0x00000000        0x0 ./gecko_sdk_4.5.0/platform/common/toolchain/src/sl_memory.o
 .text.sl_memory_get_stack_region
                0x00000000       0x10 ./gecko_sdk_4.5.0/platform/common/toolchain/src/sl_memory.o
 .text.sl_memory_get_heap_region
                0x00000000       0x14 ./gecko_sdk_4.5.0/platform/common/toolchain/src/sl_memory.o
 .text          0x00000000        0x0 ./gecko_sdk_4.5.0/platform/driver/button/src/sl_button.o
 .data          0x00000000        0x0 ./gecko_sdk_4.5.0/platform/driver/button/src/sl_button.o
 .bss           0x00000000        0x0 ./gecko_sdk_4.5.0/platform/driver/button/src/sl_button.o
 .text.sl_button_poll_step
                0x00000000        0x8 ./gecko_sdk_4.5.0/platform/driver/button/src/sl_button.o
 .text.sl_button_enable
                0x00000000        0x8 ./gecko_sdk_4.5.0/platform/driver/button/src/sl_button.o
 .text.sl_button_disable
                0x00000000        0x8 ./gecko_sdk_4.5.0/platform/driver/button/src/sl_button.o
 .text.sl_button_on_change
                0x00000000        0x2 ./gecko_sdk_4.5.0/platform/driver/button/src/sl_button.o
 .text          0x00000000        0x0 ./gecko_sdk_4.5.0/platform/driver/button/src/sl_simple_button.o
 .data          0x00000000        0x0 ./gecko_sdk_4.5.0/platform/driver/button/src/sl_simple_button.o
 .bss           0x00000000        0x0 ./gecko_sdk_4.5.0/platform/driver/button/src/sl_simple_button.o
 .text          0x00000000        0x0 ./gecko_sdk_4.5.0/platform/driver/debug/src/sl_debug_swo.o
 .data          0x00000000        0x0 ./gecko_sdk_4.5.0/platform/driver/debug/src/sl_debug_swo.o
 .bss           0x00000000        0x0 ./gecko_sdk_4.5.0/platform/driver/debug/src/sl_debug_swo.o
 .text.sl_debug_swo_write_u16
                0x00000000       0x44 ./gecko_sdk_4.5.0/platform/driver/debug/src/sl_debug_swo.o
 .text.sl_debug_swo_write_u32
                0x00000000       0x44 ./gecko_sdk_4.5.0/platform/driver/debug/src/sl_debug_swo.o
 .text          0x00000000        0x0 ./gecko_sdk_4.5.0/platform/driver/leddrv/src/sl_led.o
 .data          0x00000000        0x0 ./gecko_sdk_4.5.0/platform/driver/leddrv/src/sl_led.o
 .bss           0x00000000        0x0 ./gecko_sdk_4.5.0/platform/driver/leddrv/src/sl_led.o
 .text.sl_led_turn_on
                0x00000000        0x6 ./gecko_sdk_4.5.0/platform/driver/leddrv/src/sl_led.o
 .text.sl_led_turn_off
                0x00000000        0x6 ./gecko_sdk_4.5.0/platform/driver/leddrv/src/sl_led.o
 .text.sl_led_toggle
                0x00000000        0x6 ./gecko_sdk_4.5.0/platform/driver/leddrv/src/sl_led.o
 .text.sl_led_get_state
                0x00000000        0x6 ./gecko_sdk_4.5.0/platform/driver/leddrv/src/sl_led.o
 .text          0x00000000        0x0 ./gecko_sdk_4.5.0/platform/driver/leddrv/src/sl_simple_led.o
 .data          0x00000000        0x0 ./gecko_sdk_4.5.0/platform/driver/leddrv/src/sl_simple_led.o
 .bss           0x00000000        0x0 ./gecko_sdk_4.5.0/platform/driver/leddrv/src/sl_simple_led.o
 .text          0x00000000        0x0 ./gecko_sdk_4.5.0/platform/emdrv/dmadrv/src/dmadrv.o
 .data          0x00000000        0x0 ./gecko_sdk_4.5.0/platform/emdrv/dmadrv/src/dmadrv.o
 .bss           0x00000000        0x0 ./gecko_sdk_4.5.0/platform/emdrv/dmadrv/src/dmadrv.o
 .text.StartTransfer
                0x00000000      0x17c ./gecko_sdk_4.5.0/platform/emdrv/dmadrv/src/dmadrv.o
 .text.DMADRV_DeInit
                0x00000000       0x44 ./gecko_sdk_4.5.0/platform/emdrv/dmadrv/src/dmadrv.o
 .text.DMADRV_FreeChannel
                0x00000000       0x4c ./gecko_sdk_4.5.0/platform/emdrv/dmadrv/src/dmadrv.o
 .text.DMADRV_LdmaStartTransfer
                0x00000000       0x4c ./gecko_sdk_4.5.0/platform/emdrv/dmadrv/src/dmadrv.o
 .text.DMADRV_MemoryPeripheral
                0x00000000       0x34 ./gecko_sdk_4.5.0/platform/emdrv/dmadrv/src/dmadrv.o
 .text.DMADRV_MemoryPeripheralPingPong
                0x00000000       0x34 ./gecko_sdk_4.5.0/platform/emdrv/dmadrv/src/dmadrv.o
 .text.DMADRV_PeripheralMemory
                0x00000000       0x34 ./gecko_sdk_4.5.0/platform/emdrv/dmadrv/src/dmadrv.o
 .text.DMADRV_PeripheralMemoryPingPong
                0x00000000       0x34 ./gecko_sdk_4.5.0/platform/emdrv/dmadrv/src/dmadrv.o
 .text.DMADRV_StopTransfer
                0x00000000       0x40 ./gecko_sdk_4.5.0/platform/emdrv/dmadrv/src/dmadrv.o
 .text.DMADRV_TransferCompletePending
                0x00000000       0x50 ./gecko_sdk_4.5.0/platform/emdrv/dmadrv/src/dmadrv.o
 .text.DMADRV_TransferDone
                0x00000000       0x44 ./gecko_sdk_4.5.0/platform/emdrv/dmadrv/src/dmadrv.o
 .text.DMADRV_TransferRemainingCount
                0x00000000       0x44 ./gecko_sdk_4.5.0/platform/emdrv/dmadrv/src/dmadrv.o
 .rodata.p2m    0x00000000       0x10 ./gecko_sdk_4.5.0/platform/emdrv/dmadrv/src/dmadrv.o
 .rodata.m2p    0x00000000       0x10 ./gecko_sdk_4.5.0/platform/emdrv/dmadrv/src/dmadrv.o
 .rodata.xferCfgPeripheral
                0x00000000       0x10 ./gecko_sdk_4.5.0/platform/emdrv/dmadrv/src/dmadrv.o
 .text          0x00000000        0x0 ./gecko_sdk_4.5.0/platform/emdrv/gpiointerrupt/src/gpiointerrupt.o
 .data          0x00000000        0x0 ./gecko_sdk_4.5.0/platform/emdrv/gpiointerrupt/src/gpiointerrupt.o
 .bss           0x00000000        0x0 ./gecko_sdk_4.5.0/platform/emdrv/gpiointerrupt/src/gpiointerrupt.o
 .text          0x00000000        0x0 ./gecko_sdk_4.5.0/platform/emdrv/uartdrv/src/uartdrv.o
 .data          0x00000000        0x0 ./gecko_sdk_4.5.0/platform/emdrv/uartdrv/src/uartdrv.o
 .bss           0x00000000        0x0 ./gecko_sdk_4.5.0/platform/emdrv/uartdrv/src/uartdrv.o
 .text.GetTailBuffer
                0x00000000       0x34 ./gecko_sdk_4.5.0/platform/emdrv/uartdrv/src/uartdrv.o
 .text.EnqueueBuffer
                0x00000000       0x74 ./gecko_sdk_4.5.0/platform/emdrv/uartdrv/src/uartdrv.o
 .text.DisableReceiver
                0x00000000       0x38 ./gecko_sdk_4.5.0/platform/emdrv/uartdrv/src/uartdrv.o
 .text.EnableReceiver
                0x00000000       0x3e ./gecko_sdk_4.5.0/platform/emdrv/uartdrv/src/uartdrv.o
 .text.calculateSleeptimerTicksToFlushTxBuffers
                0x00000000       0x40 ./gecko_sdk_4.5.0/platform/emdrv/uartdrv/src/uartdrv.o
 .text.em1RequestRemove
                0x00000000       0x44 ./gecko_sdk_4.5.0/platform/emdrv/uartdrv/src/uartdrv.o
 .text.TransmitDmaCompleteDelayed
                0x00000000       0x44 ./gecko_sdk_4.5.0/platform/emdrv/uartdrv/src/uartdrv.o
 .text.em1RequestAdd
                0x00000000       0x32 ./gecko_sdk_4.5.0/platform/emdrv/uartdrv/src/uartdrv.o
 .text.StartReceiveDma
                0x00000000       0x58 ./gecko_sdk_4.5.0/platform/emdrv/uartdrv/src/uartdrv.o
 .text.StartTransmitDma
                0x00000000       0x84 ./gecko_sdk_4.5.0/platform/emdrv/uartdrv/src/uartdrv.o
 .text.DequeueBuffer.isra.0
                0x00000000       0x46 ./gecko_sdk_4.5.0/platform/emdrv/uartdrv/src/uartdrv.o
 .text.TransmitDmaComplete
                0x00000000       0x94 ./gecko_sdk_4.5.0/platform/emdrv/uartdrv/src/uartdrv.o
 .text.UARTDRV_GetPeripheralStatus
                0x00000000       0x18 ./gecko_sdk_4.5.0/platform/emdrv/uartdrv/src/uartdrv.o
 .text.UARTDRV_Abort
                0x00000000      0x134 ./gecko_sdk_4.5.0/platform/emdrv/uartdrv/src/uartdrv.o
 .text.UARTDRV_GetReceiveDepth
                0x00000000        0x8 ./gecko_sdk_4.5.0/platform/emdrv/uartdrv/src/uartdrv.o
 .text.UARTDRV_GetReceiveStatus
                0x00000000       0x58 ./gecko_sdk_4.5.0/platform/emdrv/uartdrv/src/uartdrv.o
 .text.UARTDRV_GetTransmitDepth
                0x00000000        0x8 ./gecko_sdk_4.5.0/platform/emdrv/uartdrv/src/uartdrv.o
 .text.UARTDRV_GetTransmitStatus
                0x00000000       0x58 ./gecko_sdk_4.5.0/platform/emdrv/uartdrv/src/uartdrv.o
 .text.UARTDRV_FlowControlGetPeerStatus
                0x00000000        0x4 ./gecko_sdk_4.5.0/platform/emdrv/uartdrv/src/uartdrv.o
 .text.UARTDRV_FlowControlGetSelfStatus
                0x00000000        0x4 ./gecko_sdk_4.5.0/platform/emdrv/uartdrv/src/uartdrv.o
 .text.UARTDRV_FlowControlIgnoreRestrain
                0x00000000        0xa ./gecko_sdk_4.5.0/platform/emdrv/uartdrv/src/uartdrv.o
 .text.UARTDRV_ForceReceive
                0x00000000       0x94 ./gecko_sdk_4.5.0/platform/emdrv/uartdrv/src/uartdrv.o
 .text.UARTDRV_InitUart
                0x00000000      0x1fc ./gecko_sdk_4.5.0/platform/emdrv/uartdrv/src/uartdrv.o
 .text.UARTDRV_FlowControlSet
                0x00000000       0x1c ./gecko_sdk_4.5.0/platform/emdrv/uartdrv/src/uartdrv.o
 .text.UARTDRV_DeInit
                0x00000000       0xe4 ./gecko_sdk_4.5.0/platform/emdrv/uartdrv/src/uartdrv.o
 .text.UARTDRV_Receive
                0x00000000       0x58 ./gecko_sdk_4.5.0/platform/emdrv/uartdrv/src/uartdrv.o
 .text.ReceiveDmaComplete
                0x00000000      0x114 ./gecko_sdk_4.5.0/platform/emdrv/uartdrv/src/uartdrv.o
 .text.UARTDRV_ReceiveB
                0x00000000       0x64 ./gecko_sdk_4.5.0/platform/emdrv/uartdrv/src/uartdrv.o
 .text.UARTDRV_FlowControlSetPeerStatus
                0x00000000       0x34 ./gecko_sdk_4.5.0/platform/emdrv/uartdrv/src/uartdrv.o
 .text.UARTDRV_Transmit
                0x00000000       0x8c ./gecko_sdk_4.5.0/platform/emdrv/uartdrv/src/uartdrv.o
 .text.UARTDRV_TransmitB
                0x00000000       0x84 ./gecko_sdk_4.5.0/platform/emdrv/uartdrv/src/uartdrv.o
 .text          0x00000000        0x0 ./gecko_sdk_4.5.0/platform/emlib/src/em_burtc.o
 .data          0x00000000        0x0 ./gecko_sdk_4.5.0/platform/emlib/src/em_burtc.o
 .bss           0x00000000        0x0 ./gecko_sdk_4.5.0/platform/emlib/src/em_burtc.o
 .text.BURTC_SyncWait
                0x00000000       0x14 ./gecko_sdk_4.5.0/platform/emlib/src/em_burtc.o
 .text.regSync  0x00000000       0x10 ./gecko_sdk_4.5.0/platform/emlib/src/em_burtc.o
 .rodata.BURTC_Init.str1.1
                0x00000000       0x51 ./gecko_sdk_4.5.0/platform/emlib/src/em_burtc.o
 .text.BURTC_Init
                0x00000000       0x74 ./gecko_sdk_4.5.0/platform/emlib/src/em_burtc.o
 .text.BURTC_Enable
                0x00000000       0x58 ./gecko_sdk_4.5.0/platform/emlib/src/em_burtc.o
 .text.BURTC_CompareSet
                0x00000000       0x2c ./gecko_sdk_4.5.0/platform/emlib/src/em_burtc.o
 .text.BURTC_CompareGet
                0x00000000       0x1c ./gecko_sdk_4.5.0/platform/emlib/src/em_burtc.o
 .text.BURTC_CounterReset
                0x00000000       0x20 ./gecko_sdk_4.5.0/platform/emlib/src/em_burtc.o
 .text.BURTC_Reset
                0x00000000       0x4c ./gecko_sdk_4.5.0/platform/emlib/src/em_burtc.o
 .debug_info    0x00000000      0x88f ./gecko_sdk_4.5.0/platform/emlib/src/em_burtc.o
 .debug_abbrev  0x00000000      0x2b3 ./gecko_sdk_4.5.0/platform/emlib/src/em_burtc.o
 .debug_loc     0x00000000      0x224 ./gecko_sdk_4.5.0/platform/emlib/src/em_burtc.o
 .debug_aranges
                0x00000000       0x58 ./gecko_sdk_4.5.0/platform/emlib/src/em_burtc.o
 .debug_ranges  0x00000000       0x88 ./gecko_sdk_4.5.0/platform/emlib/src/em_burtc.o
 .debug_line    0x00000000      0x64a ./gecko_sdk_4.5.0/platform/emlib/src/em_burtc.o
 .debug_str     0x00000000      0x536 ./gecko_sdk_4.5.0/platform/emlib/src/em_burtc.o
 .comment       0x00000000       0x46 ./gecko_sdk_4.5.0/platform/emlib/src/em_burtc.o
 .debug_frame   0x00000000       0xcc ./gecko_sdk_4.5.0/platform/emlib/src/em_burtc.o
 .ARM.attributes
                0x00000000       0x3a ./gecko_sdk_4.5.0/platform/emlib/src/em_burtc.o
 .text          0x00000000        0x0 ./gecko_sdk_4.5.0/platform/emlib/src/em_cmu.o
 .data          0x00000000        0x0 ./gecko_sdk_4.5.0/platform/emlib/src/em_cmu.o
 .bss           0x00000000        0x0 ./gecko_sdk_4.5.0/platform/emlib/src/em_cmu.o
 .text.HFRCODPLLDevinfoGet
                0x00000000      0x108 ./gecko_sdk_4.5.0/platform/emlib/src/em_cmu.o
 .text.BUS_RegMaskedWrite.constprop.0
                0x00000000       0x24 ./gecko_sdk_4.5.0/platform/emlib/src/em_cmu.o
 .text.CMU_CalibrateConfig
                0x00000000       0xd8 ./gecko_sdk_4.5.0/platform/emlib/src/em_cmu.o
 .text.CMU_CalibrateCountGet
                0x00000000       0x1c ./gecko_sdk_4.5.0/platform/emlib/src/em_cmu.o
 .text.CMU_Calibrate
                0x00000000       0x38 ./gecko_sdk_4.5.0/platform/emlib/src/em_cmu.o
 .text.CMU_ClkOutPinConfig
                0x00000000      0x174 ./gecko_sdk_4.5.0/platform/emlib/src/em_cmu.o
 .text.sli_em_cmu_SYSTICEXTCLKENSet
                0x00000000       0x30 ./gecko_sdk_4.5.0/platform/emlib/src/em_cmu.o
 .text.sli_em_cmu_SYSTICEXTCLKENClear
                0x00000000       0x30 ./gecko_sdk_4.5.0/platform/emlib/src/em_cmu.o
 .text.CMU_LF_ClockPrecisionGet
                0x00000000       0x3c ./gecko_sdk_4.5.0/platform/emlib/src/em_cmu.o
 .text.CMU_HF_ClockPrecisionGet
                0x00000000       0x18 ./gecko_sdk_4.5.0/platform/emlib/src/em_cmu.o
 .text.CMU_HFRCODPLLBandGet
                0x00000000        0x4 ./gecko_sdk_4.5.0/platform/emlib/src/em_cmu.o
 .text.CMU_HFXOCTuneSet
                0x00000000       0x88 ./gecko_sdk_4.5.0/platform/emlib/src/em_cmu.o
 .text.CMU_HFXOCTuneGet
                0x00000000       0x60 ./gecko_sdk_4.5.0/platform/emlib/src/em_cmu.o
 .text.CMU_HFXOCTuneDeltaSet
                0x00000000        0xc ./gecko_sdk_4.5.0/platform/emlib/src/em_cmu.o
 .text.CMU_HFXOCoreBiasCurrentCalibrate
                0x00000000       0x64 ./gecko_sdk_4.5.0/platform/emlib/src/em_cmu.o
 .text.CMU_LFXOPrecisionGet
                0x00000000        0xc ./gecko_sdk_4.5.0/platform/emlib/src/em_cmu.o
 .text.CMU_HFXOPrecisionGet
                0x00000000        0xc ./gecko_sdk_4.5.0/platform/emlib/src/em_cmu.o
 .text.CMU_LFRCOSetPrecision
                0x00000000       0x80 ./gecko_sdk_4.5.0/platform/emlib/src/em_cmu.o
 .text.CMU_OscillatorTuningGet
                0x00000000       0x58 ./gecko_sdk_4.5.0/platform/emlib/src/em_cmu.o
 .text.CMU_OscillatorTuningSet
                0x00000000      0x108 ./gecko_sdk_4.5.0/platform/emlib/src/em_cmu.o
 .text.CMU_ClockSelectSet
                0x00000000      0x41c ./gecko_sdk_4.5.0/platform/emlib/src/em_cmu.o
 .text.CMU_HFRCODPLLBandSet
                0x00000000      0x11c ./gecko_sdk_4.5.0/platform/emlib/src/em_cmu.o
 .text.CMU_DPLLLock
                0x00000000      0x288 ./gecko_sdk_4.5.0/platform/emlib/src/em_cmu.o
 .text.CMU_PCNTClockExternalSet
                0x00000000        0x2 ./gecko_sdk_4.5.0/platform/emlib/src/em_cmu.o
 .rodata.CSWTCH.78
                0x00000000        0x4 ./gecko_sdk_4.5.0/platform/emlib/src/em_cmu.o
 .rodata.hfrcoCalTable
                0x00000000      0x190 ./gecko_sdk_4.5.0/platform/emlib/src/em_cmu.o
 .text          0x00000000        0x0 ./gecko_sdk_4.5.0/platform/emlib/src/em_core.o
 .data          0x00000000        0x0 ./gecko_sdk_4.5.0/platform/emlib/src/em_core.o
 .bss           0x00000000        0x0 ./gecko_sdk_4.5.0/platform/emlib/src/em_core.o
 .text.CORE_CriticalDisableIrq
                0x00000000        0x4 ./gecko_sdk_4.5.0/platform/emlib/src/em_core.o
 .text.CORE_CriticalEnableIrq
                0x00000000        0x4 ./gecko_sdk_4.5.0/platform/emlib/src/em_core.o
 .text.CORE_YieldCritical
                0x00000000       0x12 ./gecko_sdk_4.5.0/platform/emlib/src/em_core.o
 .text.CORE_AtomicDisableIrq
                0x00000000        0x8 ./gecko_sdk_4.5.0/platform/emlib/src/em_core.o
 .text.CORE_AtomicEnableIrq
                0x00000000        0x8 ./gecko_sdk_4.5.0/platform/emlib/src/em_core.o
 .text.CORE_YieldAtomic
                0x00000000       0x18 ./gecko_sdk_4.5.0/platform/emlib/src/em_core.o
 .text.CORE_EnterNvicMask
                0x00000000       0x2c ./gecko_sdk_4.5.0/platform/emlib/src/em_core.o
 .text.CORE_NvicDisableMask
                0x00000000       0x20 ./gecko_sdk_4.5.0/platform/emlib/src/em_core.o
 .text.CORE_NvicEnableMask
                0x00000000       0x20 ./gecko_sdk_4.5.0/platform/emlib/src/em_core.o
 .text.CORE_YieldNvicMask
                0x00000000       0x34 ./gecko_sdk_4.5.0/platform/emlib/src/em_core.o
 .text.CORE_NvicMaskSetIRQ
                0x00000000       0x30 ./gecko_sdk_4.5.0/platform/emlib/src/em_core.o
 .text.CORE_NvicMaskClearIRQ
                0x00000000       0x34 ./gecko_sdk_4.5.0/platform/emlib/src/em_core.o
 .text.CORE_InIrqContext
                0x00000000       0x14 ./gecko_sdk_4.5.0/platform/emlib/src/em_core.o
 .text.CORE_IrqIsDisabled
                0x00000000       0x1a ./gecko_sdk_4.5.0/platform/emlib/src/em_core.o
 .text.CORE_GetNvicEnabledMask
                0x00000000       0x20 ./gecko_sdk_4.5.0/platform/emlib/src/em_core.o
 .text.CORE_GetNvicMaskDisableState
                0x00000000       0x2c ./gecko_sdk_4.5.0/platform/emlib/src/em_core.o
 .text.CORE_GetNvicRamTableHandler
                0x00000000       0x2c ./gecko_sdk_4.5.0/platform/emlib/src/em_core.o
 .text.CORE_SetNvicRamTableHandler
                0x00000000       0x30 ./gecko_sdk_4.5.0/platform/emlib/src/em_core.o
 .text.CORE_InitNvicVectorTable
                0x00000000       0xcc ./gecko_sdk_4.5.0/platform/emlib/src/em_core.o
 .text          0x00000000        0x0 ./gecko_sdk_4.5.0/platform/emlib/src/em_emu.o
 .data          0x00000000        0x0 ./gecko_sdk_4.5.0/platform/emlib/src/em_emu.o
 .bss           0x00000000        0x0 ./gecko_sdk_4.5.0/platform/emlib/src/em_emu.o
 .text.EMU_EM23PresleepHook
                0x00000000        0x2 ./gecko_sdk_4.5.0/platform/emlib/src/em_emu.o
 .text.EMU_EM23PostsleepHook
                0x00000000        0x2 ./gecko_sdk_4.5.0/platform/emlib/src/em_emu.o
 .text.EMU_EM4PresleepHook
                0x00000000        0x2 ./gecko_sdk_4.5.0/platform/emlib/src/em_emu.o
 .text.EMU_EFPEM4PresleepHook
                0x00000000        0x2 ./gecko_sdk_4.5.0/platform/emlib/src/em_emu.o
 .text.EMU_MemPwrDown
                0x00000000        0x2 ./gecko_sdk_4.5.0/platform/emlib/src/em_emu.o
 .text.EMU_RamPowerDown
                0x00000000       0x3c ./gecko_sdk_4.5.0/platform/emlib/src/em_emu.o
 .text.EMU_RamPowerUp
                0x00000000       0x18 ./gecko_sdk_4.5.0/platform/emlib/src/em_emu.o
 .text.EMU_UpdateOscConfig
                0x00000000        0x2 ./gecko_sdk_4.5.0/platform/emlib/src/em_emu.o
 .text.EMU_EnterEM4
                0x00000000       0x88 ./gecko_sdk_4.5.0/platform/emlib/src/em_emu.o
 .text.EMU_EnterEM4Wait
                0x00000000        0x6 ./gecko_sdk_4.5.0/platform/emlib/src/em_emu.o
 .text.EMU_EnterEM4H
                0x00000000        0x6 ./gecko_sdk_4.5.0/platform/emlib/src/em_emu.o
 .text.EMU_EnterEM4S
                0x00000000        0x6 ./gecko_sdk_4.5.0/platform/emlib/src/em_emu.o
 .text.EMU_DCDCPowerOff
                0x00000000        0xc ./gecko_sdk_4.5.0/platform/emlib/src/em_emu.o
 .text.EMU_EM01PeakCurrentSet
                0x00000000       0x7c ./gecko_sdk_4.5.0/platform/emlib/src/em_emu.o
 .text.EMU_TemperatureGet
                0x00000000       0x24 ./gecko_sdk_4.5.0/platform/emlib/src/em_emu.o
 .text.EMU_EFPDirectModeEnable
                0x00000000       0x18 ./gecko_sdk_4.5.0/platform/emlib/src/em_emu.o
 .text.EMU_EFPDriveDecoupleSet
                0x00000000       0x18 ./gecko_sdk_4.5.0/platform/emlib/src/em_emu.o
 .text.EMU_EFPDriveDvddSet
                0x00000000       0x18 ./gecko_sdk_4.5.0/platform/emlib/src/em_emu.o
 .text          0x00000000        0x0 ./gecko_sdk_4.5.0/platform/emlib/src/em_eusart.o
 .data          0x00000000        0x0 ./gecko_sdk_4.5.0/platform/emlib/src/em_eusart.o
 .bss           0x00000000        0x0 ./gecko_sdk_4.5.0/platform/emlib/src/em_eusart.o
 .text.EUSART_Rx
                0x00000000       0x28 ./gecko_sdk_4.5.0/platform/emlib/src/em_eusart.o
 .text.EUSART_RxExt
                0x00000000        0xc ./gecko_sdk_4.5.0/platform/emlib/src/em_eusart.o
 .text.EUSART_TxExt
                0x00000000        0xa ./gecko_sdk_4.5.0/platform/emlib/src/em_eusart.o
 .text.EUSART_IrDAInit
                0x00000000       0xa0 ./gecko_sdk_4.5.0/platform/emlib/src/em_eusart.o
 .text.EUSART_RxBlock
                0x00000000       0x48 ./gecko_sdk_4.5.0/platform/emlib/src/em_eusart.o
 .text.EUSART_TxTristateSet
                0x00000000       0x44 ./gecko_sdk_4.5.0/platform/emlib/src/em_eusart.o
 .text.EUSART_PrsTriggerEnable
                0x00000000       0x68 ./gecko_sdk_4.5.0/platform/emlib/src/em_eusart.o
 .text          0x00000000        0x0 ./gecko_sdk_4.5.0/platform/emlib/src/em_gpio.o
 .data          0x00000000        0x0 ./gecko_sdk_4.5.0/platform/emlib/src/em_gpio.o
 .bss           0x00000000        0x0 ./gecko_sdk_4.5.0/platform/emlib/src/em_gpio.o
 .text.GPIO_PinModeGet
                0x00000000       0x48 ./gecko_sdk_4.5.0/platform/emlib/src/em_gpio.o
 .text          0x00000000        0x0 ./gecko_sdk_4.5.0/platform/emlib/src/em_ldma.o
 .data          0x00000000        0x0 ./gecko_sdk_4.5.0/platform/emlib/src/em_ldma.o
 .bss           0x00000000        0x0 ./gecko_sdk_4.5.0/platform/emlib/src/em_ldma.o
 .text.LDMA_DeInit
                0x00000000       0x3c ./gecko_sdk_4.5.0/platform/emlib/src/em_ldma.o
 .text.LDMA_StartTransfer
                0x00000000       0xf8 ./gecko_sdk_4.5.0/platform/emlib/src/em_ldma.o
 .text.LDMA_StopTransfer
                0x00000000       0x38 ./gecko_sdk_4.5.0/platform/emlib/src/em_ldma.o
 .text.LDMA_TransferDone
                0x00000000       0x44 ./gecko_sdk_4.5.0/platform/emlib/src/em_ldma.o
 .text.LDMA_TransferRemainingCount
                0x00000000       0x50 ./gecko_sdk_4.5.0/platform/emlib/src/em_ldma.o
 .text          0x00000000        0x0 ./gecko_sdk_4.5.0/platform/emlib/src/em_msc.o
 .data          0x00000000        0x0 ./gecko_sdk_4.5.0/platform/emlib/src/em_msc.o
 .bss           0x00000000        0x0 ./gecko_sdk_4.5.0/platform/emlib/src/em_msc.o
 .ram           0x00000000      0x1e8 ./gecko_sdk_4.5.0/platform/emlib/src/em_msc.o
 .rodata.str1.1
                0x00000000       0x4f ./gecko_sdk_4.5.0/platform/emlib/src/em_msc.o
 .text.MSC_Init
                0x00000000       0x20 ./gecko_sdk_4.5.0/platform/emlib/src/em_msc.o
 .text.MSC_Deinit
                0x00000000       0x24 ./gecko_sdk_4.5.0/platform/emlib/src/em_msc.o
 .text.MSC_ExecConfigSet
                0x00000000       0x18 ./gecko_sdk_4.5.0/platform/emlib/src/em_msc.o
 .text.MSC_WriteWordDma
                0x00000000       0xf4 ./gecko_sdk_4.5.0/platform/emlib/src/em_msc.o
 .text.MSC_EccConfigSet
                0x00000000       0x98 ./gecko_sdk_4.5.0/platform/emlib/src/em_msc.o
 .debug_info    0x00000000     0x2bbb ./gecko_sdk_4.5.0/platform/emlib/src/em_msc.o
 .debug_abbrev  0x00000000      0x2f1 ./gecko_sdk_4.5.0/platform/emlib/src/em_msc.o
 .debug_loc     0x00000000      0x839 ./gecko_sdk_4.5.0/platform/emlib/src/em_msc.o
 .debug_aranges
                0x00000000       0x68 ./gecko_sdk_4.5.0/platform/emlib/src/em_msc.o
 .debug_ranges  0x00000000       0xa8 ./gecko_sdk_4.5.0/platform/emlib/src/em_msc.o
 .debug_line    0x00000000      0x8e9 ./gecko_sdk_4.5.0/platform/emlib/src/em_msc.o
 .debug_str     0x00000000     0x16d3 ./gecko_sdk_4.5.0/platform/emlib/src/em_msc.o
 .comment       0x00000000       0x46 ./gecko_sdk_4.5.0/platform/emlib/src/em_msc.o
 .debug_frame   0x00000000      0x12c ./gecko_sdk_4.5.0/platform/emlib/src/em_msc.o
 .ARM.attributes
                0x00000000       0x3a ./gecko_sdk_4.5.0/platform/emlib/src/em_msc.o
 .text          0x00000000        0x0 ./gecko_sdk_4.5.0/platform/emlib/src/em_rtcc.o
 .data          0x00000000        0x0 ./gecko_sdk_4.5.0/platform/emlib/src/em_rtcc.o
 .bss           0x00000000        0x0 ./gecko_sdk_4.5.0/platform/emlib/src/em_rtcc.o
 .text.RTCC_Reset
                0x00000000       0x48 ./gecko_sdk_4.5.0/platform/emlib/src/em_rtcc.o
 .text.RTCC_StatusClear
                0x00000000        0x2 ./gecko_sdk_4.5.0/platform/emlib/src/em_rtcc.o
 .text          0x00000000        0x0 ./gecko_sdk_4.5.0/platform/emlib/src/em_system.o
 .data          0x00000000        0x0 ./gecko_sdk_4.5.0/platform/emlib/src/em_system.o
 .bss           0x00000000        0x0 ./gecko_sdk_4.5.0/platform/emlib/src/em_system.o
 .text.SYSTEM_ChipRevisionGet
                0x00000000       0x24 ./gecko_sdk_4.5.0/platform/emlib/src/em_system.o
 .text.SYSTEM_GetCalibrationValue
                0x00000000       0x30 ./gecko_sdk_4.5.0/platform/emlib/src/em_system.o
 .text.SYSTEM_GetSecurityCapability
                0x00000000        0xc ./gecko_sdk_4.5.0/platform/emlib/src/em_system.o
 .text.SYSTEM_GetUnique
                0x00000000        0xc ./gecko_sdk_4.5.0/platform/emlib/src/em_system.o
 .text.SYSTEM_GetSRAMBaseAddress
                0x00000000        0x6 ./gecko_sdk_4.5.0/platform/emlib/src/em_system.o
 .text.SYSTEM_GetSRAMSize
                0x00000000       0x10 ./gecko_sdk_4.5.0/platform/emlib/src/em_system.o
 .text.SYSTEM_GetFlashSize
                0x00000000        0xc ./gecko_sdk_4.5.0/platform/emlib/src/em_system.o
 .text.SYSTEM_GetFlashPageSize
                0x00000000       0x14 ./gecko_sdk_4.5.0/platform/emlib/src/em_system.o
 .text.SYSTEM_GetPartNumber
                0x00000000        0xc ./gecko_sdk_4.5.0/platform/emlib/src/em_system.o
 .text.SYSTEM_GetCalibrationTemperature
                0x00000000        0xc ./gecko_sdk_4.5.0/platform/emlib/src/em_system.o
 .text.SYSTEM_GetFamily
                0x00000000       0x18 ./gecko_sdk_4.5.0/platform/emlib/src/em_system.o
 .text          0x00000000        0x0 ./gecko_sdk_4.5.0/platform/emlib/src/em_timer.o
 .data          0x00000000        0x0 ./gecko_sdk_4.5.0/platform/emlib/src/em_timer.o
 .bss           0x00000000        0x0 ./gecko_sdk_4.5.0/platform/emlib/src/em_timer.o
 .text.TIMER_Valid
                0x00000000       0x34 ./gecko_sdk_4.5.0/platform/emlib/src/em_timer.o
 .rodata.timerPrsConfig.str1.1
                0x00000000       0x51 ./gecko_sdk_4.5.0/platform/emlib/src/em_timer.o
 .text.timerPrsConfig
                0x00000000       0x70 ./gecko_sdk_4.5.0/platform/emlib/src/em_timer.o
 .text.TIMER_SyncWait
                0x00000000        0xe ./gecko_sdk_4.5.0/platform/emlib/src/em_timer.o
 .text.TIMER_Init
                0x00000000       0x90 ./gecko_sdk_4.5.0/platform/emlib/src/em_timer.o
 .text.TIMER_InitCC
                0x00000000       0xa4 ./gecko_sdk_4.5.0/platform/emlib/src/em_timer.o
 .text.TIMER_Reset
                0x00000000       0x98 ./gecko_sdk_4.5.0/platform/emlib/src/em_timer.o
 .rodata.TIMER_InitDTI.str1.1
                0x00000000       0x51 ./gecko_sdk_4.5.0/platform/emlib/src/em_timer.o
 .text.TIMER_InitDTI
                0x00000000      0x12c ./gecko_sdk_4.5.0/platform/emlib/src/em_timer.o
 .debug_info    0x00000000     0x29ca ./gecko_sdk_4.5.0/platform/emlib/src/em_timer.o
 .debug_abbrev  0x00000000      0x35b ./gecko_sdk_4.5.0/platform/emlib/src/em_timer.o
 .debug_loc     0x00000000      0x6b7 ./gecko_sdk_4.5.0/platform/emlib/src/em_timer.o
 .debug_aranges
                0x00000000       0x50 ./gecko_sdk_4.5.0/platform/emlib/src/em_timer.o
 .debug_ranges  0x00000000       0xa0 ./gecko_sdk_4.5.0/platform/emlib/src/em_timer.o
 .debug_line    0x00000000      0x846 ./gecko_sdk_4.5.0/platform/emlib/src/em_timer.o
 .debug_str     0x00000000     0x29bb ./gecko_sdk_4.5.0/platform/emlib/src/em_timer.o
 .comment       0x00000000       0x46 ./gecko_sdk_4.5.0/platform/emlib/src/em_timer.o
 .debug_frame   0x00000000       0xd4 ./gecko_sdk_4.5.0/platform/emlib/src/em_timer.o
 .ARM.attributes
                0x00000000       0x3a ./gecko_sdk_4.5.0/platform/emlib/src/em_timer.o
 .text          0x00000000        0x0 ./gecko_sdk_4.5.0/platform/emlib/src/em_usart.o
 .data          0x00000000        0x0 ./gecko_sdk_4.5.0/platform/emlib/src/em_usart.o
 .bss           0x00000000        0x0 ./gecko_sdk_4.5.0/platform/emlib/src/em_usart.o
 .rodata.USART_BaudrateAsyncSet.str1.1
                0x00000000       0x51 ./gecko_sdk_4.5.0/platform/emlib/src/em_usart.o
 .text.USART_BaudrateAsyncSet
                0x00000000       0xe0 ./gecko_sdk_4.5.0/platform/emlib/src/em_usart.o
 .text.USART_BaudrateCalc
                0x00000000       0x7c ./gecko_sdk_4.5.0/platform/emlib/src/em_usart.o
 .text.USART_BaudrateGet
                0x00000000       0x22 ./gecko_sdk_4.5.0/platform/emlib/src/em_usart.o
 .text.USART_BaudrateSyncSet
                0x00000000       0x48 ./gecko_sdk_4.5.0/platform/emlib/src/em_usart.o
 .text.USART_Enable
                0x00000000       0x44 ./gecko_sdk_4.5.0/platform/emlib/src/em_usart.o
 .text.USART_InitPrsTrigger
                0x00000000       0x4c ./gecko_sdk_4.5.0/platform/emlib/src/em_usart.o
 .text.USART_Reset
                0x00000000       0x70 ./gecko_sdk_4.5.0/platform/emlib/src/em_usart.o
 .text.USART_InitAsync
                0x00000000      0x120 ./gecko_sdk_4.5.0/platform/emlib/src/em_usart.o
 .text.USARTn_InitIrDA
                0x00000000       0x58 ./gecko_sdk_4.5.0/platform/emlib/src/em_usart.o
 .text.USART_InitSync
                0x00000000       0xc8 ./gecko_sdk_4.5.0/platform/emlib/src/em_usart.o
 .text.USART_InitI2s
                0x00000000       0x68 ./gecko_sdk_4.5.0/platform/emlib/src/em_usart.o
 .text.USART_Rx
                0x00000000        0xc ./gecko_sdk_4.5.0/platform/emlib/src/em_usart.o
 .text.USART_RxDouble
                0x00000000        0xc ./gecko_sdk_4.5.0/platform/emlib/src/em_usart.o
 .text.USART_RxDoubleExt
                0x00000000        0xa ./gecko_sdk_4.5.0/platform/emlib/src/em_usart.o
 .text.USART_RxExt
                0x00000000        0xc ./gecko_sdk_4.5.0/platform/emlib/src/em_usart.o
 .text.USART_SpiTransfer
                0x00000000       0x14 ./gecko_sdk_4.5.0/platform/emlib/src/em_usart.o
 .text.USART_TxDouble
                0x00000000        0xa ./gecko_sdk_4.5.0/platform/emlib/src/em_usart.o
 .text.USART_TxDoubleExt
                0x00000000        0xa ./gecko_sdk_4.5.0/platform/emlib/src/em_usart.o
 .text.USART_TxExt
                0x00000000        0xa ./gecko_sdk_4.5.0/platform/emlib/src/em_usart.o
 .text          0x00000000        0x0 ./gecko_sdk_4.5.0/platform/service/device_init/src/sl_device_init_dcdc_s2.o
 .data          0x00000000        0x0 ./gecko_sdk_4.5.0/platform/service/device_init/src/sl_device_init_dcdc_s2.o
 .bss           0x00000000        0x0 ./gecko_sdk_4.5.0/platform/service/device_init/src/sl_device_init_dcdc_s2.o
 .text          0x00000000        0x0 ./gecko_sdk_4.5.0/platform/service/device_init/src/sl_device_init_emu_s2.o
 .data          0x00000000        0x0 ./gecko_sdk_4.5.0/platform/service/device_init/src/sl_device_init_emu_s2.o
 .bss           0x00000000        0x0 ./gecko_sdk_4.5.0/platform/service/device_init/src/sl_device_init_emu_s2.o
 .text          0x00000000        0x0 ./gecko_sdk_4.5.0/platform/service/device_init/src/sl_device_init_hfxo_s2.o
 .data          0x00000000        0x0 ./gecko_sdk_4.5.0/platform/service/device_init/src/sl_device_init_hfxo_s2.o
 .bss           0x00000000        0x0 ./gecko_sdk_4.5.0/platform/service/device_init/src/sl_device_init_hfxo_s2.o
 .text          0x00000000        0x0 ./gecko_sdk_4.5.0/platform/service/device_init/src/sl_device_init_lfxo_s2.o
 .data          0x00000000        0x0 ./gecko_sdk_4.5.0/platform/service/device_init/src/sl_device_init_lfxo_s2.o
 .bss           0x00000000        0x0 ./gecko_sdk_4.5.0/platform/service/device_init/src/sl_device_init_lfxo_s2.o
 .text          0x00000000        0x0 ./gecko_sdk_4.5.0/platform/service/device_init/src/sl_device_init_nvic.o
 .data          0x00000000        0x0 ./gecko_sdk_4.5.0/platform/service/device_init/src/sl_device_init_nvic.o
 .bss           0x00000000        0x0 ./gecko_sdk_4.5.0/platform/service/device_init/src/sl_device_init_nvic.o
 .text          0x00000000        0x0 ./gecko_sdk_4.5.0/platform/service/iostream/src/sl_iostream.o
 .data          0x00000000        0x0 ./gecko_sdk_4.5.0/platform/service/iostream/src/sl_iostream.o
 .bss           0x00000000        0x0 ./gecko_sdk_4.5.0/platform/service/iostream/src/sl_iostream.o
 .text.sl_iostream_set_default
                0x00000000       0x18 ./gecko_sdk_4.5.0/platform/service/iostream/src/sl_iostream.o
 .text.sl_iostream_putchar
                0x00000000       0x16 ./gecko_sdk_4.5.0/platform/service/iostream/src/sl_iostream.o
 .text.sl_iostream_getchar
                0x00000000        0x8 ./gecko_sdk_4.5.0/platform/service/iostream/src/sl_iostream.o
 .text.sl_iostream_vprintf
                0x00000000       0x44 ./gecko_sdk_4.5.0/platform/service/iostream/src/sl_iostream.o
 .text.sl_iostream_printf
                0x00000000       0x1a ./gecko_sdk_4.5.0/platform/service/iostream/src/sl_iostream.o
 .bss.sl_iostream_null
                0x00000000        0xc ./gecko_sdk_4.5.0/platform/service/iostream/src/sl_iostream.o
 .text          0x00000000        0x0 ./gecko_sdk_4.5.0/platform/service/iostream/src/sl_iostream_retarget_stdio.o
 .data          0x00000000        0x0 ./gecko_sdk_4.5.0/platform/service/iostream/src/sl_iostream_retarget_stdio.o
 .bss           0x00000000        0x0 ./gecko_sdk_4.5.0/platform/service/iostream/src/sl_iostream_retarget_stdio.o
 .text._getpid  0x00000000        0x4 ./gecko_sdk_4.5.0/platform/service/iostream/src/sl_iostream_retarget_stdio.o
 .text._kill    0x00000000        0x6 ./gecko_sdk_4.5.0/platform/service/iostream/src/sl_iostream_retarget_stdio.o
 .text          0x00000000        0x0 ./gecko_sdk_4.5.0/platform/service/iostream/src/sl_iostream_uart.o
 .data          0x00000000        0x0 ./gecko_sdk_4.5.0/platform/service/iostream/src/sl_iostream_uart.o
 .bss           0x00000000        0x0 ./gecko_sdk_4.5.0/platform/service/iostream/src/sl_iostream_uart.o
 .text.sleep_on_isr_exit
                0x00000000       0x26 ./gecko_sdk_4.5.0/platform/service/iostream/src/sl_iostream_uart.o
 .text.set_auto_cr_lf
                0x00000000        0x6 ./gecko_sdk_4.5.0/platform/service/iostream/src/sl_iostream_uart.o
 .text.get_auto_cr_lf
                0x00000000        0x6 ./gecko_sdk_4.5.0/platform/service/iostream/src/sl_iostream_uart.o
 .text.get_rx_energy_mode_restriction
                0x00000000        0x6 ./gecko_sdk_4.5.0/platform/service/iostream/src/sl_iostream_uart.o
 .rodata.get_write_ptr.str1.1
                0x00000000       0x64 ./gecko_sdk_4.5.0/platform/service/iostream/src/sl_iostream_uart.o
 .text.get_write_ptr
                0x00000000       0x40 ./gecko_sdk_4.5.0/platform/service/iostream/src/sl_iostream_uart.o
 .text.dma_irq_handler
                0x00000000       0x74 ./gecko_sdk_4.5.0/platform/service/iostream/src/sl_iostream_uart.o
 .text.uart_read
                0x00000000      0x1f4 ./gecko_sdk_4.5.0/platform/service/iostream/src/sl_iostream_uart.o
 .text.__NVIC_EnableIRQ
                0x00000000       0x1c ./gecko_sdk_4.5.0/platform/service/iostream/src/sl_iostream_uart.o
 .text.__NVIC_DisableIRQ
                0x00000000       0x24 ./gecko_sdk_4.5.0/platform/service/iostream/src/sl_iostream_uart.o
 .text.__NVIC_ClearPendingIRQ
                0x00000000       0x1c ./gecko_sdk_4.5.0/platform/service/iostream/src/sl_iostream_uart.o
 .text.uart_deinit
                0x00000000       0x8c ./gecko_sdk_4.5.0/platform/service/iostream/src/sl_iostream_uart.o
 .text.set_rx_energy_mode_restriction
                0x00000000       0x50 ./gecko_sdk_4.5.0/platform/service/iostream/src/sl_iostream_uart.o
 .text.uart_write
                0x00000000      0x104 ./gecko_sdk_4.5.0/platform/service/iostream/src/sl_iostream_uart.o
 .text.sli_iostream_uart_context_init
                0x00000000      0x140 ./gecko_sdk_4.5.0/platform/service/iostream/src/sl_iostream_uart.o
 .text.sli_uart_txc
                0x00000000       0x4c ./gecko_sdk_4.5.0/platform/service/iostream/src/sl_iostream_uart.o
 .debug_info    0x00000000     0x2414 ./gecko_sdk_4.5.0/platform/service/iostream/src/sl_iostream_uart.o
 .debug_abbrev  0x00000000      0x500 ./gecko_sdk_4.5.0/platform/service/iostream/src/sl_iostream_uart.o
 .debug_loc     0x00000000     0x1169 ./gecko_sdk_4.5.0/platform/service/iostream/src/sl_iostream_uart.o
 .debug_aranges
                0x00000000       0x90 ./gecko_sdk_4.5.0/platform/service/iostream/src/sl_iostream_uart.o
 .debug_ranges  0x00000000      0x138 ./gecko_sdk_4.5.0/platform/service/iostream/src/sl_iostream_uart.o
 .debug_line    0x00000000      0xf45 ./gecko_sdk_4.5.0/platform/service/iostream/src/sl_iostream_uart.o
 .debug_str     0x00000000     0x1203 ./gecko_sdk_4.5.0/platform/service/iostream/src/sl_iostream_uart.o
 .comment       0x00000000       0x46 ./gecko_sdk_4.5.0/platform/service/iostream/src/sl_iostream_uart.o
 .debug_frame   0x00000000      0x1a0 ./gecko_sdk_4.5.0/platform/service/iostream/src/sl_iostream_uart.o
 .ARM.attributes
                0x00000000       0x3a ./gecko_sdk_4.5.0/platform/service/iostream/src/sl_iostream_uart.o
 .text          0x00000000        0x0 ./gecko_sdk_4.5.0/platform/service/iostream/src/sl_iostream_usart.o
 .data          0x00000000        0x0 ./gecko_sdk_4.5.0/platform/service/iostream/src/sl_iostream_usart.o
 .bss           0x00000000        0x0 ./gecko_sdk_4.5.0/platform/service/iostream/src/sl_iostream_usart.o
 .text.usart_set_next_byte_detect
                0x00000000        0xc ./gecko_sdk_4.5.0/platform/service/iostream/src/sl_iostream_usart.o
 .text.usart_deinit
                0x00000000       0x7c ./gecko_sdk_4.5.0/platform/service/iostream/src/sl_iostream_usart.o
 .text.usart_tx
                0x00000000        0xc ./gecko_sdk_4.5.0/platform/service/iostream/src/sl_iostream_usart.o
 .text.usart_tx_completed
                0x00000000       0x18 ./gecko_sdk_4.5.0/platform/service/iostream/src/sl_iostream_usart.o
 .text.sl_iostream_usart_init
                0x00000000      0x184 ./gecko_sdk_4.5.0/platform/service/iostream/src/sl_iostream_usart.o
 .text.sl_iostream_usart_irq_handler
                0x00000000       0x90 ./gecko_sdk_4.5.0/platform/service/iostream/src/sl_iostream_usart.o
 .debug_info    0x00000000     0x3467 ./gecko_sdk_4.5.0/platform/service/iostream/src/sl_iostream_usart.o
 .debug_abbrev  0x00000000      0x3e8 ./gecko_sdk_4.5.0/platform/service/iostream/src/sl_iostream_usart.o
 .debug_loc     0x00000000      0x5ca ./gecko_sdk_4.5.0/platform/service/iostream/src/sl_iostream_usart.o
 .debug_aranges
                0x00000000       0x48 ./gecko_sdk_4.5.0/platform/service/iostream/src/sl_iostream_usart.o
 .debug_ranges  0x00000000       0xa8 ./gecko_sdk_4.5.0/platform/service/iostream/src/sl_iostream_usart.o
 .debug_line    0x00000000      0x9bd ./gecko_sdk_4.5.0/platform/service/iostream/src/sl_iostream_usart.o
 .debug_str     0x00000000     0x2653 ./gecko_sdk_4.5.0/platform/service/iostream/src/sl_iostream_usart.o
 .comment       0x00000000       0x46 ./gecko_sdk_4.5.0/platform/service/iostream/src/sl_iostream_usart.o
 .debug_frame   0x00000000       0xb4 ./gecko_sdk_4.5.0/platform/service/iostream/src/sl_iostream_usart.o
 .ARM.attributes
                0x00000000       0x3a ./gecko_sdk_4.5.0/platform/service/iostream/src/sl_iostream_usart.o
 .text          0x00000000        0x0 ./gecko_sdk_4.5.0/platform/service/power_manager/src/sl_power_manager.o
 .data          0x00000000        0x0 ./gecko_sdk_4.5.0/platform/service/power_manager/src/sl_power_manager.o
 .bss           0x00000000        0x0 ./gecko_sdk_4.5.0/platform/service/power_manager/src/sl_power_manager.o
 .text.sli_power_manager_update_hf_clock_settings_preservation_requirement
                0x00000000       0x88 ./gecko_sdk_4.5.0/platform/service/power_manager/src/sl_power_manager.o
 .text.sli_power_manager_add_hf_clock_settings_preservation_requirement
                0x00000000        0x6 ./gecko_sdk_4.5.0/platform/service/power_manager/src/sl_power_manager.o
 .text.sli_power_manager_remove_hf_clock_settings_preservation_requirement
                0x00000000        0x6 ./gecko_sdk_4.5.0/platform/service/power_manager/src/sl_power_manager.o
 .text.sli_power_manager_get_clock_restore_status
                0x00000000        0xc ./gecko_sdk_4.5.0/platform/service/power_manager/src/sl_power_manager.o
 .text.sl_power_manager_subscribe_em_transition_event
                0x00000000       0x24 ./gecko_sdk_4.5.0/platform/service/power_manager/src/sl_power_manager.o
 .text.sl_power_manager_unsubscribe_em_transition_event
                0x00000000       0x20 ./gecko_sdk_4.5.0/platform/service/power_manager/src/sl_power_manager.o
 .text.sl_power_manager_schedule_wakeup_get_restore_overhead_tick
                0x00000000        0xc ./gecko_sdk_4.5.0/platform/service/power_manager/src/sl_power_manager.o
 .text.sl_power_manager_schedule_wakeup_set_restore_overhead_tick
                0x00000000        0xc ./gecko_sdk_4.5.0/platform/service/power_manager/src/sl_power_manager.o
 .text.sl_power_manager_schedule_wakeup_get_minimum_offtime_tick
                0x00000000        0xc ./gecko_sdk_4.5.0/platform/service/power_manager/src/sl_power_manager.o
 .text.sl_power_manager_schedule_wakeup_set_minimum_offtime_tick
                0x00000000        0xc ./gecko_sdk_4.5.0/platform/service/power_manager/src/sl_power_manager.o
 .text.sl_power_manager_is_ok_to_sleep
                0x00000000        0x4 ./gecko_sdk_4.5.0/platform/service/power_manager/src/sl_power_manager.o
 .text.sl_power_manager_sleep_on_isr_exit
                0x00000000        0x4 ./gecko_sdk_4.5.0/platform/service/power_manager/src/sl_power_manager.o
 .text.sli_hfxo_manager_notify_ready_for_power_manager
                0x00000000       0x3c ./gecko_sdk_4.5.0/platform/service/power_manager/src/sl_power_manager.o
 .text.sli_hfxo_notify_ready_for_power_manager_from_prs
                0x00000000       0x18 ./gecko_sdk_4.5.0/platform/service/power_manager/src/sl_power_manager.o
 .text.sl_power_manager_em23_voltage_scaling_enable_fast_wakeup
                0x00000000       0x1a ./gecko_sdk_4.5.0/platform/service/power_manager/src/sl_power_manager.o
 .text          0x00000000        0x0 ./gecko_sdk_4.5.0/platform/service/power_manager/src/sl_power_manager_debug.o
 .data          0x00000000        0x0 ./gecko_sdk_4.5.0/platform/service/power_manager/src/sl_power_manager_debug.o
 .bss           0x00000000        0x0 ./gecko_sdk_4.5.0/platform/service/power_manager/src/sl_power_manager_debug.o
 .text.sli_power_manager_debug_log_em_requirement
                0x00000000        0x2 ./gecko_sdk_4.5.0/platform/service/power_manager/src/sl_power_manager_debug.o
 .debug_info    0x00000000      0x106 ./gecko_sdk_4.5.0/platform/service/power_manager/src/sl_power_manager_debug.o
 .debug_abbrev  0x00000000       0xa5 ./gecko_sdk_4.5.0/platform/service/power_manager/src/sl_power_manager_debug.o
 .debug_aranges
                0x00000000       0x20 ./gecko_sdk_4.5.0/platform/service/power_manager/src/sl_power_manager_debug.o
 .debug_ranges  0x00000000       0x10 ./gecko_sdk_4.5.0/platform/service/power_manager/src/sl_power_manager_debug.o
 .debug_line    0x00000000      0x119 ./gecko_sdk_4.5.0/platform/service/power_manager/src/sl_power_manager_debug.o
 .debug_str     0x00000000      0x2f1 ./gecko_sdk_4.5.0/platform/service/power_manager/src/sl_power_manager_debug.o
 .comment       0x00000000       0x46 ./gecko_sdk_4.5.0/platform/service/power_manager/src/sl_power_manager_debug.o
 .debug_frame   0x00000000       0x20 ./gecko_sdk_4.5.0/platform/service/power_manager/src/sl_power_manager_debug.o
 .ARM.attributes
                0x00000000       0x3a ./gecko_sdk_4.5.0/platform/service/power_manager/src/sl_power_manager_debug.o
 .text          0x00000000        0x0 ./gecko_sdk_4.5.0/platform/service/power_manager/src/sl_power_manager_hal_s2.o
 .data          0x00000000        0x0 ./gecko_sdk_4.5.0/platform/service/power_manager/src/sl_power_manager_hal_s2.o
 .bss           0x00000000        0x0 ./gecko_sdk_4.5.0/platform/service/power_manager/src/sl_power_manager_hal_s2.o
 .text.sli_power_manager_set_high_accuracy_hf_clock_as_used
                0x00000000        0xc ./gecko_sdk_4.5.0/platform/service/power_manager/src/sl_power_manager_hal_s2.o
 .text          0x00000000        0x0 ./gecko_sdk_4.5.0/platform/service/sleeptimer/src/sl_sleeptimer.o
 .data          0x00000000        0x0 ./gecko_sdk_4.5.0/platform/service/sleeptimer/src/sl_sleeptimer.o
 .bss           0x00000000        0x0 ./gecko_sdk_4.5.0/platform/service/sleeptimer/src/sl_sleeptimer.o
 .text.sl_sleeptimer_restart_periodic_timer
                0x00000000       0x38 ./gecko_sdk_4.5.0/platform/service/sleeptimer/src/sl_sleeptimer.o
 .text.sl_sleeptimer_start_periodic_timer
                0x00000000       0x4a ./gecko_sdk_4.5.0/platform/service/sleeptimer/src/sl_sleeptimer.o
 .text.sl_sleeptimer_get_timer_time_remaining
                0x00000000       0x70 ./gecko_sdk_4.5.0/platform/service/sleeptimer/src/sl_sleeptimer.o
 .text.sl_sleeptimer_get_tick_count64
                0x00000000       0x34 ./gecko_sdk_4.5.0/platform/service/sleeptimer/src/sl_sleeptimer.o
 .text.sl_sleeptimer_ms32_to_tick
                0x00000000       0x3c ./gecko_sdk_4.5.0/platform/service/sleeptimer/src/sl_sleeptimer.o
 .text.sl_sleeptimer_start_periodic_timer_ms
                0x00000000       0x84 ./gecko_sdk_4.5.0/platform/service/sleeptimer/src/sl_sleeptimer.o
 .text.sl_sleeptimer_restart_periodic_timer_ms
                0x00000000       0x64 ./gecko_sdk_4.5.0/platform/service/sleeptimer/src/sl_sleeptimer.o
 .text.sl_sleeptimer_get_max_ms32_conversion
                0x00000000        0xc ./gecko_sdk_4.5.0/platform/service/sleeptimer/src/sl_sleeptimer.o
 .text.sl_sleeptimer_tick_to_ms
                0x00000000       0x44 ./gecko_sdk_4.5.0/platform/service/sleeptimer/src/sl_sleeptimer.o
 .text.sl_sleeptimer_tick64_to_ms
                0x00000000       0x64 ./gecko_sdk_4.5.0/platform/service/sleeptimer/src/sl_sleeptimer.o
 .text.sl_sleeptimer_get_clock_accuracy
                0x00000000        0x4 ./gecko_sdk_4.5.0/platform/service/sleeptimer/src/sl_sleeptimer.o
 .text.sli_sleeptimer_update_sleep_on_isr_exit
                0x00000000        0xc ./gecko_sdk_4.5.0/platform/service/sleeptimer/src/sl_sleeptimer.o
 .text.sli_sleeptimer_get_capture
                0x00000000        0x4 ./gecko_sdk_4.5.0/platform/service/sleeptimer/src/sl_sleeptimer.o
 .text.sli_sleeptimer_reset_prs_signal
                0x00000000        0x4 ./gecko_sdk_4.5.0/platform/service/sleeptimer/src/sl_sleeptimer.o
 .text          0x00000000        0x0 ./gecko_sdk_4.5.0/platform/service/sleeptimer/src/sl_sleeptimer_hal_burtc.o
 .data          0x00000000        0x0 ./gecko_sdk_4.5.0/platform/service/sleeptimer/src/sl_sleeptimer_hal_burtc.o
 .bss           0x00000000        0x0 ./gecko_sdk_4.5.0/platform/service/sleeptimer/src/sl_sleeptimer_hal_burtc.o
 .debug_info    0x00000000       0x72 ./gecko_sdk_4.5.0/platform/service/sleeptimer/src/sl_sleeptimer_hal_burtc.o
 .debug_abbrev  0x00000000       0x26 ./gecko_sdk_4.5.0/platform/service/sleeptimer/src/sl_sleeptimer_hal_burtc.o
 .debug_aranges
                0x00000000       0x18 ./gecko_sdk_4.5.0/platform/service/sleeptimer/src/sl_sleeptimer_hal_burtc.o
 .debug_line    0x00000000       0x8d ./gecko_sdk_4.5.0/platform/service/sleeptimer/src/sl_sleeptimer_hal_burtc.o
 .debug_str     0x00000000      0x240 ./gecko_sdk_4.5.0/platform/service/sleeptimer/src/sl_sleeptimer_hal_burtc.o
 .comment       0x00000000       0x46 ./gecko_sdk_4.5.0/platform/service/sleeptimer/src/sl_sleeptimer_hal_burtc.o
 .ARM.attributes
                0x00000000       0x3a ./gecko_sdk_4.5.0/platform/service/sleeptimer/src/sl_sleeptimer_hal_burtc.o
 .text          0x00000000        0x0 ./gecko_sdk_4.5.0/platform/service/sleeptimer/src/sl_sleeptimer_hal_prortc.o
 .data          0x00000000        0x0 ./gecko_sdk_4.5.0/platform/service/sleeptimer/src/sl_sleeptimer_hal_prortc.o
 .bss           0x00000000        0x0 ./gecko_sdk_4.5.0/platform/service/sleeptimer/src/sl_sleeptimer_hal_prortc.o
 .debug_info    0x00000000       0x72 ./gecko_sdk_4.5.0/platform/service/sleeptimer/src/sl_sleeptimer_hal_prortc.o
 .debug_abbrev  0x00000000       0x26 ./gecko_sdk_4.5.0/platform/service/sleeptimer/src/sl_sleeptimer_hal_prortc.o
 .debug_aranges
                0x00000000       0x18 ./gecko_sdk_4.5.0/platform/service/sleeptimer/src/sl_sleeptimer_hal_prortc.o
 .debug_line    0x00000000       0x8e ./gecko_sdk_4.5.0/platform/service/sleeptimer/src/sl_sleeptimer_hal_prortc.o
 .debug_str     0x00000000      0x241 ./gecko_sdk_4.5.0/platform/service/sleeptimer/src/sl_sleeptimer_hal_prortc.o
 .comment       0x00000000       0x46 ./gecko_sdk_4.5.0/platform/service/sleeptimer/src/sl_sleeptimer_hal_prortc.o
 .ARM.attributes
                0x00000000       0x3a ./gecko_sdk_4.5.0/platform/service/sleeptimer/src/sl_sleeptimer_hal_prortc.o
 .text          0x00000000        0x0 ./gecko_sdk_4.5.0/platform/service/sleeptimer/src/sl_sleeptimer_hal_rtcc.o
 .data          0x00000000        0x0 ./gecko_sdk_4.5.0/platform/service/sleeptimer/src/sl_sleeptimer_hal_rtcc.o
 .bss           0x00000000        0x0 ./gecko_sdk_4.5.0/platform/service/sleeptimer/src/sl_sleeptimer_hal_rtcc.o
 .text.sleeptimer_hal_get_compare
                0x00000000        0x8 ./gecko_sdk_4.5.0/platform/service/sleeptimer/src/sl_sleeptimer_hal_rtcc.o
 .text.sleeptimer_hal_get_clock_accuracy
                0x00000000        0x6 ./gecko_sdk_4.5.0/platform/service/sleeptimer/src/sl_sleeptimer_hal_rtcc.o
 .rodata.sleeptimer_hal_get_capture.str1.1
                0x00000000       0x6c ./gecko_sdk_4.5.0/platform/service/sleeptimer/src/sl_sleeptimer_hal_rtcc.o
 .text.sleeptimer_hal_get_capture
                0x00000000       0x14 ./gecko_sdk_4.5.0/platform/service/sleeptimer/src/sl_sleeptimer_hal_rtcc.o
 .text.sleeptimer_hal_reset_prs_signal
                0x00000000       0x10 ./gecko_sdk_4.5.0/platform/service/sleeptimer/src/sl_sleeptimer_hal_rtcc.o
 .text          0x00000000        0x0 ./gecko_sdk_4.5.0/platform/service/sleeptimer/src/sl_sleeptimer_hal_timer.o
 .data          0x00000000        0x0 ./gecko_sdk_4.5.0/platform/service/sleeptimer/src/sl_sleeptimer_hal_timer.o
 .bss           0x00000000        0x0 ./gecko_sdk_4.5.0/platform/service/sleeptimer/src/sl_sleeptimer_hal_timer.o
 .debug_info    0x00000000       0x72 ./gecko_sdk_4.5.0/platform/service/sleeptimer/src/sl_sleeptimer_hal_timer.o
 .debug_abbrev  0x00000000       0x26 ./gecko_sdk_4.5.0/platform/service/sleeptimer/src/sl_sleeptimer_hal_timer.o
 .debug_aranges
                0x00000000       0x18 ./gecko_sdk_4.5.0/platform/service/sleeptimer/src/sl_sleeptimer_hal_timer.o
 .debug_line    0x00000000       0x8d ./gecko_sdk_4.5.0/platform/service/sleeptimer/src/sl_sleeptimer_hal_timer.o
 .debug_str     0x00000000      0x240 ./gecko_sdk_4.5.0/platform/service/sleeptimer/src/sl_sleeptimer_hal_timer.o
 .comment       0x00000000       0x46 ./gecko_sdk_4.5.0/platform/service/sleeptimer/src/sl_sleeptimer_hal_timer.o
 .ARM.attributes
                0x00000000       0x3a ./gecko_sdk_4.5.0/platform/service/sleeptimer/src/sl_sleeptimer_hal_timer.o
 .text          0x00000000        0x0 ./gecko_sdk_4.5.0/platform/service/system/src/sl_system_init.o
 .data          0x00000000        0x0 ./gecko_sdk_4.5.0/platform/service/system/src/sl_system_init.o
 .bss           0x00000000        0x0 ./gecko_sdk_4.5.0/platform/service/system/src/sl_system_init.o
 .text          0x00000000        0x0 ./gecko_sdk_4.5.0/platform/service/system/src/sl_system_process_action.o
 .data          0x00000000        0x0 ./gecko_sdk_4.5.0/platform/service/system/src/sl_system_process_action.o
 .bss           0x00000000        0x0 ./gecko_sdk_4.5.0/platform/service/system/src/sl_system_process_action.o
 .text          0x00000000        0x0 ./gecko_sdk_4.5.0/platform/service/udelay/src/sl_udelay.o
 .data          0x00000000        0x0 ./gecko_sdk_4.5.0/platform/service/udelay/src/sl_udelay.o
 .bss           0x00000000        0x0 ./gecko_sdk_4.5.0/platform/service/udelay/src/sl_udelay.o
 .rodata.sl_udelay_wait.str1.1
                0x00000000       0x5b ./gecko_sdk_4.5.0/platform/service/udelay/src/sl_udelay.o
 .text.sl_udelay_wait
                0x00000000       0x58 ./gecko_sdk_4.5.0/platform/service/udelay/src/sl_udelay.o
 .debug_info    0x00000000      0x1a6 ./gecko_sdk_4.5.0/platform/service/udelay/src/sl_udelay.o
 .debug_abbrev  0x00000000      0x11e ./gecko_sdk_4.5.0/platform/service/udelay/src/sl_udelay.o
 .debug_loc     0x00000000      0x195 ./gecko_sdk_4.5.0/platform/service/udelay/src/sl_udelay.o
 .debug_aranges
                0x00000000       0x20 ./gecko_sdk_4.5.0/platform/service/udelay/src/sl_udelay.o
 .debug_ranges  0x00000000       0x28 ./gecko_sdk_4.5.0/platform/service/udelay/src/sl_udelay.o
 .debug_line    0x00000000      0x2da ./gecko_sdk_4.5.0/platform/service/udelay/src/sl_udelay.o
 .debug_str     0x00000000      0x2a5 ./gecko_sdk_4.5.0/platform/service/udelay/src/sl_udelay.o
 .comment       0x00000000       0x46 ./gecko_sdk_4.5.0/platform/service/udelay/src/sl_udelay.o
 .debug_frame   0x00000000       0x38 ./gecko_sdk_4.5.0/platform/service/udelay/src/sl_udelay.o
 .ARM.attributes
                0x00000000       0x3a ./gecko_sdk_4.5.0/platform/service/udelay/src/sl_udelay.o
 .text          0x00000000        0x8 ./gecko_sdk_4.5.0/platform/service/udelay/src/sl_udelay_armv6m_gcc.o
 .data          0x00000000        0x0 ./gecko_sdk_4.5.0/platform/service/udelay/src/sl_udelay_armv6m_gcc.o
 .bss           0x00000000        0x0 ./gecko_sdk_4.5.0/platform/service/udelay/src/sl_udelay_armv6m_gcc.o
 .debug_line    0x00000000       0x98 ./gecko_sdk_4.5.0/platform/service/udelay/src/sl_udelay_armv6m_gcc.o
 .debug_info    0x00000000       0x26 ./gecko_sdk_4.5.0/platform/service/udelay/src/sl_udelay_armv6m_gcc.o
 .debug_abbrev  0x00000000       0x14 ./gecko_sdk_4.5.0/platform/service/udelay/src/sl_udelay_armv6m_gcc.o
 .debug_aranges
                0x00000000       0x20 ./gecko_sdk_4.5.0/platform/service/udelay/src/sl_udelay_armv6m_gcc.o
 .debug_str     0x00000000       0xd2 ./gecko_sdk_4.5.0/platform/service/udelay/src/sl_udelay_armv6m_gcc.o
 .ARM.attributes
                0x00000000       0x26 ./gecko_sdk_4.5.0/platform/service/udelay/src/sl_udelay_armv6m_gcc.o
 .text          0x00000000       0xa0 c:/siliconlabs/simplicitystudio/v5/developer/toolchains/gnu_arm/12.2.rel1_2023.7/bin/../lib/gcc/arm-none-eabi/12.2.1/thumb/v8-m.main+fp/hard\libgcc.a(_aeabi_ldivmod.o)
 .data          0x00000000        0x0 c:/siliconlabs/simplicitystudio/v5/developer/toolchains/gnu_arm/12.2.rel1_2023.7/bin/../lib/gcc/arm-none-eabi/12.2.1/thumb/v8-m.main+fp/hard\libgcc.a(_aeabi_ldivmod.o)
 .bss           0x00000000        0x0 c:/siliconlabs/simplicitystudio/v5/developer/toolchains/gnu_arm/12.2.rel1_2023.7/bin/../lib/gcc/arm-none-eabi/12.2.1/thumb/v8-m.main+fp/hard\libgcc.a(_aeabi_ldivmod.o)
 .debug_line_str
                0x00000000       0xcd c:/siliconlabs/simplicitystudio/v5/developer/toolchains/gnu_arm/12.2.rel1_2023.7/bin/../lib/gcc/arm-none-eabi/12.2.1/thumb/v8-m.main+fp/hard\libgcc.a(_aeabi_ldivmod.o)
 .debug_frame   0x00000000       0x44 c:/siliconlabs/simplicitystudio/v5/developer/toolchains/gnu_arm/12.2.rel1_2023.7/bin/../lib/gcc/arm-none-eabi/12.2.1/thumb/v8-m.main+fp/hard\libgcc.a(_aeabi_ldivmod.o)
 .ARM.attributes
                0x00000000       0x26 c:/siliconlabs/simplicitystudio/v5/developer/toolchains/gnu_arm/12.2.rel1_2023.7/bin/../lib/gcc/arm-none-eabi/12.2.1/thumb/v8-m.main+fp/hard\libgcc.a(_aeabi_ldivmod.o)
 .data          0x00000000        0x0 c:/siliconlabs/simplicitystudio/v5/developer/toolchains/gnu_arm/12.2.rel1_2023.7/bin/../lib/gcc/arm-none-eabi/12.2.1/thumb/v8-m.main+fp/hard\libgcc.a(_aeabi_uldivmod.o)
 .bss           0x00000000        0x0 c:/siliconlabs/simplicitystudio/v5/developer/toolchains/gnu_arm/12.2.rel1_2023.7/bin/../lib/gcc/arm-none-eabi/12.2.1/thumb/v8-m.main+fp/hard\libgcc.a(_aeabi_uldivmod.o)
 .text          0x00000000        0x0 c:/siliconlabs/simplicitystudio/v5/developer/toolchains/gnu_arm/12.2.rel1_2023.7/bin/../lib/gcc/arm-none-eabi/12.2.1/thumb/v8-m.main+fp/hard\libgcc.a(_udivmoddi4.o)
 .data          0x00000000        0x0 c:/siliconlabs/simplicitystudio/v5/developer/toolchains/gnu_arm/12.2.rel1_2023.7/bin/../lib/gcc/arm-none-eabi/12.2.1/thumb/v8-m.main+fp/hard\libgcc.a(_udivmoddi4.o)
 .bss           0x00000000        0x0 c:/siliconlabs/simplicitystudio/v5/developer/toolchains/gnu_arm/12.2.rel1_2023.7/bin/../lib/gcc/arm-none-eabi/12.2.1/thumb/v8-m.main+fp/hard\libgcc.a(_udivmoddi4.o)
 .ARM.extab.text.__udivmoddi4
                0x00000000        0x0 c:/siliconlabs/simplicitystudio/v5/developer/toolchains/gnu_arm/12.2.rel1_2023.7/bin/../lib/gcc/arm-none-eabi/12.2.1/thumb/v8-m.main+fp/hard\libgcc.a(_udivmoddi4.o)
 .data          0x00000000        0x0 c:/siliconlabs/simplicitystudio/v5/developer/toolchains/gnu_arm/12.2.rel1_2023.7/bin/../lib/gcc/arm-none-eabi/12.2.1/thumb/v8-m.main+fp/hard\libgcc.a(_dvmd_tls.o)
 .bss           0x00000000        0x0 c:/siliconlabs/simplicitystudio/v5/developer/toolchains/gnu_arm/12.2.rel1_2023.7/bin/../lib/gcc/arm-none-eabi/12.2.1/thumb/v8-m.main+fp/hard\libgcc.a(_dvmd_tls.o)
 .text          0x00000000        0x0 c:/siliconlabs/simplicitystudio/v5/developer/toolchains/gnu_arm/12.2.rel1_2023.7/bin/../lib/gcc/arm-none-eabi/12.2.1/thumb/v8-m.main+fp/hard\libc_nano.a(libc_a-exit.o)
 .data          0x00000000        0x0 c:/siliconlabs/simplicitystudio/v5/developer/toolchains/gnu_arm/12.2.rel1_2023.7/bin/../lib/gcc/arm-none-eabi/12.2.1/thumb/v8-m.main+fp/hard\libc_nano.a(libc_a-exit.o)
 .bss           0x00000000        0x0 c:/siliconlabs/simplicitystudio/v5/developer/toolchains/gnu_arm/12.2.rel1_2023.7/bin/../lib/gcc/arm-none-eabi/12.2.1/thumb/v8-m.main+fp/hard\libc_nano.a(libc_a-exit.o)
 .text          0x00000000        0x0 c:/siliconlabs/simplicitystudio/v5/developer/toolchains/gnu_arm/12.2.rel1_2023.7/bin/../lib/gcc/arm-none-eabi/12.2.1/thumb/v8-m.main+fp/hard\libc_nano.a(libc_a-ctype_.o)
 .data          0x00000000        0x0 c:/siliconlabs/simplicitystudio/v5/developer/toolchains/gnu_arm/12.2.rel1_2023.7/bin/../lib/gcc/arm-none-eabi/12.2.1/thumb/v8-m.main+fp/hard\libc_nano.a(libc_a-ctype_.o)
 .bss           0x00000000        0x0 c:/siliconlabs/simplicitystudio/v5/developer/toolchains/gnu_arm/12.2.rel1_2023.7/bin/../lib/gcc/arm-none-eabi/12.2.1/thumb/v8-m.main+fp/hard\libc_nano.a(libc_a-ctype_.o)
 .rodata._ctype_
                0x00000000      0x101 c:/siliconlabs/simplicitystudio/v5/developer/toolchains/gnu_arm/12.2.rel1_2023.7/bin/../lib/gcc/arm-none-eabi/12.2.1/thumb/v8-m.main+fp/hard\libc_nano.a(libc_a-ctype_.o)
 .ARM.attributes
                0x00000000       0x38 c:/siliconlabs/simplicitystudio/v5/developer/toolchains/gnu_arm/12.2.rel1_2023.7/bin/../lib/gcc/arm-none-eabi/12.2.1/thumb/v8-m.main+fp/hard\libc_nano.a(libc_a-ctype_.o)
 .text          0x00000000        0x0 c:/siliconlabs/simplicitystudio/v5/developer/toolchains/gnu_arm/12.2.rel1_2023.7/bin/../lib/gcc/arm-none-eabi/12.2.1/thumb/v8-m.main+fp/hard\libc_nano.a(libc_a-findfp.o)
 .data          0x00000000        0x0 c:/siliconlabs/simplicitystudio/v5/developer/toolchains/gnu_arm/12.2.rel1_2023.7/bin/../lib/gcc/arm-none-eabi/12.2.1/thumb/v8-m.main+fp/hard\libc_nano.a(libc_a-findfp.o)
 .bss           0x00000000        0x0 c:/siliconlabs/simplicitystudio/v5/developer/toolchains/gnu_arm/12.2.rel1_2023.7/bin/../lib/gcc/arm-none-eabi/12.2.1/thumb/v8-m.main+fp/hard\libc_nano.a(libc_a-findfp.o)
 .text.__fp_lock
                0x00000000       0x18 c:/siliconlabs/simplicitystudio/v5/developer/toolchains/gnu_arm/12.2.rel1_2023.7/bin/../lib/gcc/arm-none-eabi/12.2.1/thumb/v8-m.main+fp/hard\libc_nano.a(libc_a-findfp.o)
 .text.__fp_unlock
                0x00000000       0x18 c:/siliconlabs/simplicitystudio/v5/developer/toolchains/gnu_arm/12.2.rel1_2023.7/bin/../lib/gcc/arm-none-eabi/12.2.1/thumb/v8-m.main+fp/hard\libc_nano.a(libc_a-findfp.o)
 .text.__sfp    0x00000000       0xa4 c:/siliconlabs/simplicitystudio/v5/developer/toolchains/gnu_arm/12.2.rel1_2023.7/bin/../lib/gcc/arm-none-eabi/12.2.1/thumb/v8-m.main+fp/hard\libc_nano.a(libc_a-findfp.o)
 .text.__fp_lock_all
                0x00000000       0x1c c:/siliconlabs/simplicitystudio/v5/developer/toolchains/gnu_arm/12.2.rel1_2023.7/bin/../lib/gcc/arm-none-eabi/12.2.1/thumb/v8-m.main+fp/hard\libc_nano.a(libc_a-findfp.o)
 .text.__fp_unlock_all
                0x00000000       0x1c c:/siliconlabs/simplicitystudio/v5/developer/toolchains/gnu_arm/12.2.rel1_2023.7/bin/../lib/gcc/arm-none-eabi/12.2.1/thumb/v8-m.main+fp/hard\libc_nano.a(libc_a-findfp.o)
 .text          0x00000000        0x0 c:/siliconlabs/simplicitystudio/v5/developer/toolchains/gnu_arm/12.2.rel1_2023.7/bin/../lib/gcc/arm-none-eabi/12.2.1/thumb/v8-m.main+fp/hard\libc_nano.a(libc_a-fwalk.o)
 .data          0x00000000        0x0 c:/siliconlabs/simplicitystudio/v5/developer/toolchains/gnu_arm/12.2.rel1_2023.7/bin/../lib/gcc/arm-none-eabi/12.2.1/thumb/v8-m.main+fp/hard\libc_nano.a(libc_a-fwalk.o)
 .bss           0x00000000        0x0 c:/siliconlabs/simplicitystudio/v5/developer/toolchains/gnu_arm/12.2.rel1_2023.7/bin/../lib/gcc/arm-none-eabi/12.2.1/thumb/v8-m.main+fp/hard\libc_nano.a(libc_a-fwalk.o)
 .text          0x00000000        0x0 c:/siliconlabs/simplicitystudio/v5/developer/toolchains/gnu_arm/12.2.rel1_2023.7/bin/../lib/gcc/arm-none-eabi/12.2.1/thumb/v8-m.main+fp/hard\libc_nano.a(libc_a-printf.o)
 .data          0x00000000        0x0 c:/siliconlabs/simplicitystudio/v5/developer/toolchains/gnu_arm/12.2.rel1_2023.7/bin/../lib/gcc/arm-none-eabi/12.2.1/thumb/v8-m.main+fp/hard\libc_nano.a(libc_a-printf.o)
 .bss           0x00000000        0x0 c:/siliconlabs/simplicitystudio/v5/developer/toolchains/gnu_arm/12.2.rel1_2023.7/bin/../lib/gcc/arm-none-eabi/12.2.1/thumb/v8-m.main+fp/hard\libc_nano.a(libc_a-printf.o)
 .text._printf_r
                0x00000000       0x1c c:/siliconlabs/simplicitystudio/v5/developer/toolchains/gnu_arm/12.2.rel1_2023.7/bin/../lib/gcc/arm-none-eabi/12.2.1/thumb/v8-m.main+fp/hard\libc_nano.a(libc_a-printf.o)
 .text          0x00000000        0x0 c:/siliconlabs/simplicitystudio/v5/developer/toolchains/gnu_arm/12.2.rel1_2023.7/bin/../lib/gcc/arm-none-eabi/12.2.1/thumb/v8-m.main+fp/hard\libc_nano.a(libc_a-stdio.o)
 .data          0x00000000        0x0 c:/siliconlabs/simplicitystudio/v5/developer/toolchains/gnu_arm/12.2.rel1_2023.7/bin/../lib/gcc/arm-none-eabi/12.2.1/thumb/v8-m.main+fp/hard\libc_nano.a(libc_a-stdio.o)
 .bss           0x00000000        0x0 c:/siliconlabs/simplicitystudio/v5/developer/toolchains/gnu_arm/12.2.rel1_2023.7/bin/../lib/gcc/arm-none-eabi/12.2.1/thumb/v8-m.main+fp/hard\libc_nano.a(libc_a-stdio.o)
 .text.__seofread
                0x00000000        0x4 c:/siliconlabs/simplicitystudio/v5/developer/toolchains/gnu_arm/12.2.rel1_2023.7/bin/../lib/gcc/arm-none-eabi/12.2.1/thumb/v8-m.main+fp/hard\libc_nano.a(libc_a-stdio.o)
 .text          0x00000000        0x0 c:/siliconlabs/simplicitystudio/v5/developer/toolchains/gnu_arm/12.2.rel1_2023.7/bin/../lib/gcc/arm-none-eabi/12.2.1/thumb/v8-m.main+fp/hard\libc_nano.a(libc_a-vprintf.o)
 .data          0x00000000        0x0 c:/siliconlabs/simplicitystudio/v5/developer/toolchains/gnu_arm/12.2.rel1_2023.7/bin/../lib/gcc/arm-none-eabi/12.2.1/thumb/v8-m.main+fp/hard\libc_nano.a(libc_a-vprintf.o)
 .bss           0x00000000        0x0 c:/siliconlabs/simplicitystudio/v5/developer/toolchains/gnu_arm/12.2.rel1_2023.7/bin/../lib/gcc/arm-none-eabi/12.2.1/thumb/v8-m.main+fp/hard\libc_nano.a(libc_a-vprintf.o)
 .text.vprintf  0x00000000       0x14 c:/siliconlabs/simplicitystudio/v5/developer/toolchains/gnu_arm/12.2.rel1_2023.7/bin/../lib/gcc/arm-none-eabi/12.2.1/thumb/v8-m.main+fp/hard\libc_nano.a(libc_a-vprintf.o)
 .text._vprintf_r
                0x00000000        0xa c:/siliconlabs/simplicitystudio/v5/developer/toolchains/gnu_arm/12.2.rel1_2023.7/bin/../lib/gcc/arm-none-eabi/12.2.1/thumb/v8-m.main+fp/hard\libc_nano.a(libc_a-vprintf.o)
 .debug_frame   0x00000000       0x30 c:/siliconlabs/simplicitystudio/v5/developer/toolchains/gnu_arm/12.2.rel1_2023.7/bin/../lib/gcc/arm-none-eabi/12.2.1/thumb/v8-m.main+fp/hard\libc_nano.a(libc_a-vprintf.o)
 .ARM.attributes
                0x00000000       0x38 c:/siliconlabs/simplicitystudio/v5/developer/toolchains/gnu_arm/12.2.rel1_2023.7/bin/../lib/gcc/arm-none-eabi/12.2.1/thumb/v8-m.main+fp/hard\libc_nano.a(libc_a-vprintf.o)
 .text          0x00000000        0x0 c:/siliconlabs/simplicitystudio/v5/developer/toolchains/gnu_arm/12.2.rel1_2023.7/bin/../lib/gcc/arm-none-eabi/12.2.1/thumb/v8-m.main+fp/hard\libc_nano.a(libc_a-memset.o)
 .data          0x00000000        0x0 c:/siliconlabs/simplicitystudio/v5/developer/toolchains/gnu_arm/12.2.rel1_2023.7/bin/../lib/gcc/arm-none-eabi/12.2.1/thumb/v8-m.main+fp/hard\libc_nano.a(libc_a-memset.o)
 .bss           0x00000000        0x0 c:/siliconlabs/simplicitystudio/v5/developer/toolchains/gnu_arm/12.2.rel1_2023.7/bin/../lib/gcc/arm-none-eabi/12.2.1/thumb/v8-m.main+fp/hard\libc_nano.a(libc_a-memset.o)
 .text          0x00000000        0x0 c:/siliconlabs/simplicitystudio/v5/developer/toolchains/gnu_arm/12.2.rel1_2023.7/bin/../lib/gcc/arm-none-eabi/12.2.1/thumb/v8-m.main+fp/hard\libc_nano.a(libc_a-closer.o)
 .data          0x00000000        0x0 c:/siliconlabs/simplicitystudio/v5/developer/toolchains/gnu_arm/12.2.rel1_2023.7/bin/../lib/gcc/arm-none-eabi/12.2.1/thumb/v8-m.main+fp/hard\libc_nano.a(libc_a-closer.o)
 .bss           0x00000000        0x0 c:/siliconlabs/simplicitystudio/v5/developer/toolchains/gnu_arm/12.2.rel1_2023.7/bin/../lib/gcc/arm-none-eabi/12.2.1/thumb/v8-m.main+fp/hard\libc_nano.a(libc_a-closer.o)
 .text          0x00000000        0x0 c:/siliconlabs/simplicitystudio/v5/developer/toolchains/gnu_arm/12.2.rel1_2023.7/bin/../lib/gcc/arm-none-eabi/12.2.1/thumb/v8-m.main+fp/hard\libc_nano.a(libc_a-reent.o)
 .data          0x00000000        0x0 c:/siliconlabs/simplicitystudio/v5/developer/toolchains/gnu_arm/12.2.rel1_2023.7/bin/../lib/gcc/arm-none-eabi/12.2.1/thumb/v8-m.main+fp/hard\libc_nano.a(libc_a-reent.o)
 .bss           0x00000000        0x0 c:/siliconlabs/simplicitystudio/v5/developer/toolchains/gnu_arm/12.2.rel1_2023.7/bin/../lib/gcc/arm-none-eabi/12.2.1/thumb/v8-m.main+fp/hard\libc_nano.a(libc_a-reent.o)
 .text._reclaim_reent
                0x00000000       0xac c:/siliconlabs/simplicitystudio/v5/developer/toolchains/gnu_arm/12.2.rel1_2023.7/bin/../lib/gcc/arm-none-eabi/12.2.1/thumb/v8-m.main+fp/hard\libc_nano.a(libc_a-reent.o)
 .text          0x00000000        0x0 c:/siliconlabs/simplicitystudio/v5/developer/toolchains/gnu_arm/12.2.rel1_2023.7/bin/../lib/gcc/arm-none-eabi/12.2.1/thumb/v8-m.main+fp/hard\libc_nano.a(libc_a-impure.o)
 .data          0x00000000        0x0 c:/siliconlabs/simplicitystudio/v5/developer/toolchains/gnu_arm/12.2.rel1_2023.7/bin/../lib/gcc/arm-none-eabi/12.2.1/thumb/v8-m.main+fp/hard\libc_nano.a(libc_a-impure.o)
 .bss           0x00000000        0x0 c:/siliconlabs/simplicitystudio/v5/developer/toolchains/gnu_arm/12.2.rel1_2023.7/bin/../lib/gcc/arm-none-eabi/12.2.1/thumb/v8-m.main+fp/hard\libc_nano.a(libc_a-impure.o)
 .text          0x00000000        0x0 c:/siliconlabs/simplicitystudio/v5/developer/toolchains/gnu_arm/12.2.rel1_2023.7/bin/../lib/gcc/arm-none-eabi/12.2.1/thumb/v8-m.main+fp/hard\libc_nano.a(libc_a-lseekr.o)
 .data          0x00000000        0x0 c:/siliconlabs/simplicitystudio/v5/developer/toolchains/gnu_arm/12.2.rel1_2023.7/bin/../lib/gcc/arm-none-eabi/12.2.1/thumb/v8-m.main+fp/hard\libc_nano.a(libc_a-lseekr.o)
 .bss           0x00000000        0x0 c:/siliconlabs/simplicitystudio/v5/developer/toolchains/gnu_arm/12.2.rel1_2023.7/bin/../lib/gcc/arm-none-eabi/12.2.1/thumb/v8-m.main+fp/hard\libc_nano.a(libc_a-lseekr.o)
 .text          0x00000000        0x0 c:/siliconlabs/simplicitystudio/v5/developer/toolchains/gnu_arm/12.2.rel1_2023.7/bin/../lib/gcc/arm-none-eabi/12.2.1/thumb/v8-m.main+fp/hard\libc_nano.a(libc_a-readr.o)
 .data          0x00000000        0x0 c:/siliconlabs/simplicitystudio/v5/developer/toolchains/gnu_arm/12.2.rel1_2023.7/bin/../lib/gcc/arm-none-eabi/12.2.1/thumb/v8-m.main+fp/hard\libc_nano.a(libc_a-readr.o)
 .bss           0x00000000        0x0 c:/siliconlabs/simplicitystudio/v5/developer/toolchains/gnu_arm/12.2.rel1_2023.7/bin/../lib/gcc/arm-none-eabi/12.2.1/thumb/v8-m.main+fp/hard\libc_nano.a(libc_a-readr.o)
 .text          0x00000000        0x0 c:/siliconlabs/simplicitystudio/v5/developer/toolchains/gnu_arm/12.2.rel1_2023.7/bin/../lib/gcc/arm-none-eabi/12.2.1/thumb/v8-m.main+fp/hard\libc_nano.a(libc_a-writer.o)
 .data          0x00000000        0x0 c:/siliconlabs/simplicitystudio/v5/developer/toolchains/gnu_arm/12.2.rel1_2023.7/bin/../lib/gcc/arm-none-eabi/12.2.1/thumb/v8-m.main+fp/hard\libc_nano.a(libc_a-writer.o)
 .bss           0x00000000        0x0 c:/siliconlabs/simplicitystudio/v5/developer/toolchains/gnu_arm/12.2.rel1_2023.7/bin/../lib/gcc/arm-none-eabi/12.2.1/thumb/v8-m.main+fp/hard\libc_nano.a(libc_a-writer.o)
 .text          0x00000000        0x0 c:/siliconlabs/simplicitystudio/v5/developer/toolchains/gnu_arm/12.2.rel1_2023.7/bin/../lib/gcc/arm-none-eabi/12.2.1/thumb/v8-m.main+fp/hard\libc_nano.a(libc_a-init.o)
 .data          0x00000000        0x0 c:/siliconlabs/simplicitystudio/v5/developer/toolchains/gnu_arm/12.2.rel1_2023.7/bin/../lib/gcc/arm-none-eabi/12.2.1/thumb/v8-m.main+fp/hard\libc_nano.a(libc_a-init.o)
 .bss           0x00000000        0x0 c:/siliconlabs/simplicitystudio/v5/developer/toolchains/gnu_arm/12.2.rel1_2023.7/bin/../lib/gcc/arm-none-eabi/12.2.1/thumb/v8-m.main+fp/hard\libc_nano.a(libc_a-init.o)
 .text          0x00000000        0x0 c:/siliconlabs/simplicitystudio/v5/developer/toolchains/gnu_arm/12.2.rel1_2023.7/bin/../lib/gcc/arm-none-eabi/12.2.1/thumb/v8-m.main+fp/hard\libc_nano.a(libc_a-lock.o)
 .data          0x00000000        0x0 c:/siliconlabs/simplicitystudio/v5/developer/toolchains/gnu_arm/12.2.rel1_2023.7/bin/../lib/gcc/arm-none-eabi/12.2.1/thumb/v8-m.main+fp/hard\libc_nano.a(libc_a-lock.o)
 .bss           0x00000000        0x0 c:/siliconlabs/simplicitystudio/v5/developer/toolchains/gnu_arm/12.2.rel1_2023.7/bin/../lib/gcc/arm-none-eabi/12.2.1/thumb/v8-m.main+fp/hard\libc_nano.a(libc_a-lock.o)
 .text.__retarget_lock_init
                0x00000000        0x2 c:/siliconlabs/simplicitystudio/v5/developer/toolchains/gnu_arm/12.2.rel1_2023.7/bin/../lib/gcc/arm-none-eabi/12.2.1/thumb/v8-m.main+fp/hard\libc_nano.a(libc_a-lock.o)
 .text.__retarget_lock_close
                0x00000000        0x2 c:/siliconlabs/simplicitystudio/v5/developer/toolchains/gnu_arm/12.2.rel1_2023.7/bin/../lib/gcc/arm-none-eabi/12.2.1/thumb/v8-m.main+fp/hard\libc_nano.a(libc_a-lock.o)
 .text.__retarget_lock_close_recursive
                0x00000000        0x2 c:/siliconlabs/simplicitystudio/v5/developer/toolchains/gnu_arm/12.2.rel1_2023.7/bin/../lib/gcc/arm-none-eabi/12.2.1/thumb/v8-m.main+fp/hard\libc_nano.a(libc_a-lock.o)
 .text.__retarget_lock_acquire
                0x00000000        0x2 c:/siliconlabs/simplicitystudio/v5/developer/toolchains/gnu_arm/12.2.rel1_2023.7/bin/../lib/gcc/arm-none-eabi/12.2.1/thumb/v8-m.main+fp/hard\libc_nano.a(libc_a-lock.o)
 .text.__retarget_lock_try_acquire
                0x00000000        0x4 c:/siliconlabs/simplicitystudio/v5/developer/toolchains/gnu_arm/12.2.rel1_2023.7/bin/../lib/gcc/arm-none-eabi/12.2.1/thumb/v8-m.main+fp/hard\libc_nano.a(libc_a-lock.o)
 .text.__retarget_lock_try_acquire_recursive
                0x00000000        0x4 c:/siliconlabs/simplicitystudio/v5/developer/toolchains/gnu_arm/12.2.rel1_2023.7/bin/../lib/gcc/arm-none-eabi/12.2.1/thumb/v8-m.main+fp/hard\libc_nano.a(libc_a-lock.o)
 .text.__retarget_lock_release
                0x00000000        0x2 c:/siliconlabs/simplicitystudio/v5/developer/toolchains/gnu_arm/12.2.rel1_2023.7/bin/../lib/gcc/arm-none-eabi/12.2.1/thumb/v8-m.main+fp/hard\libc_nano.a(libc_a-lock.o)
 .bss.__lock___arc4random_mutex
                0x00000000        0x1 c:/siliconlabs/simplicitystudio/v5/developer/toolchains/gnu_arm/12.2.rel1_2023.7/bin/../lib/gcc/arm-none-eabi/12.2.1/thumb/v8-m.main+fp/hard\libc_nano.a(libc_a-lock.o)
 .bss.__lock___dd_hash_mutex
                0x00000000        0x1 c:/siliconlabs/simplicitystudio/v5/developer/toolchains/gnu_arm/12.2.rel1_2023.7/bin/../lib/gcc/arm-none-eabi/12.2.1/thumb/v8-m.main+fp/hard\libc_nano.a(libc_a-lock.o)
 .bss.__lock___tz_mutex
                0x00000000        0x1 c:/siliconlabs/simplicitystudio/v5/developer/toolchains/gnu_arm/12.2.rel1_2023.7/bin/../lib/gcc/arm-none-eabi/12.2.1/thumb/v8-m.main+fp/hard\libc_nano.a(libc_a-lock.o)
 .bss.__lock___env_recursive_mutex
                0x00000000        0x1 c:/siliconlabs/simplicitystudio/v5/developer/toolchains/gnu_arm/12.2.rel1_2023.7/bin/../lib/gcc/arm-none-eabi/12.2.1/thumb/v8-m.main+fp/hard\libc_nano.a(libc_a-lock.o)
 .bss.__lock___at_quick_exit_mutex
                0x00000000        0x1 c:/siliconlabs/simplicitystudio/v5/developer/toolchains/gnu_arm/12.2.rel1_2023.7/bin/../lib/gcc/arm-none-eabi/12.2.1/thumb/v8-m.main+fp/hard\libc_nano.a(libc_a-lock.o)
 .bss.__lock___atexit_recursive_mutex
                0x00000000        0x1 c:/siliconlabs/simplicitystudio/v5/developer/toolchains/gnu_arm/12.2.rel1_2023.7/bin/../lib/gcc/arm-none-eabi/12.2.1/thumb/v8-m.main+fp/hard\libc_nano.a(libc_a-lock.o)
 .text          0x00000000        0x0 c:/siliconlabs/simplicitystudio/v5/developer/toolchains/gnu_arm/12.2.rel1_2023.7/bin/../lib/gcc/arm-none-eabi/12.2.1/thumb/v8-m.main+fp/hard\libc_nano.a(libc_a-memcpy-stub.o)
 .data          0x00000000        0x0 c:/siliconlabs/simplicitystudio/v5/developer/toolchains/gnu_arm/12.2.rel1_2023.7/bin/../lib/gcc/arm-none-eabi/12.2.1/thumb/v8-m.main+fp/hard\libc_nano.a(libc_a-memcpy-stub.o)
 .bss           0x00000000        0x0 c:/siliconlabs/simplicitystudio/v5/developer/toolchains/gnu_arm/12.2.rel1_2023.7/bin/../lib/gcc/arm-none-eabi/12.2.1/thumb/v8-m.main+fp/hard\libc_nano.a(libc_a-memcpy-stub.o)
 .text.memcpy   0x00000000       0x1a c:/siliconlabs/simplicitystudio/v5/developer/toolchains/gnu_arm/12.2.rel1_2023.7/bin/../lib/gcc/arm-none-eabi/12.2.1/thumb/v8-m.main+fp/hard\libc_nano.a(libc_a-memcpy-stub.o)
 .debug_frame   0x00000000       0x28 c:/siliconlabs/simplicitystudio/v5/developer/toolchains/gnu_arm/12.2.rel1_2023.7/bin/../lib/gcc/arm-none-eabi/12.2.1/thumb/v8-m.main+fp/hard\libc_nano.a(libc_a-memcpy-stub.o)
 .ARM.attributes
                0x00000000       0x38 c:/siliconlabs/simplicitystudio/v5/developer/toolchains/gnu_arm/12.2.rel1_2023.7/bin/../lib/gcc/arm-none-eabi/12.2.1/thumb/v8-m.main+fp/hard\libc_nano.a(libc_a-memcpy-stub.o)
 .text          0x00000000        0x0 c:/siliconlabs/simplicitystudio/v5/developer/toolchains/gnu_arm/12.2.rel1_2023.7/bin/../lib/gcc/arm-none-eabi/12.2.1/thumb/v8-m.main+fp/hard\libc_nano.a(libc_a-freer.o)
 .data          0x00000000        0x0 c:/siliconlabs/simplicitystudio/v5/developer/toolchains/gnu_arm/12.2.rel1_2023.7/bin/../lib/gcc/arm-none-eabi/12.2.1/thumb/v8-m.main+fp/hard\libc_nano.a(libc_a-freer.o)
 .bss           0x00000000        0x0 c:/siliconlabs/simplicitystudio/v5/developer/toolchains/gnu_arm/12.2.rel1_2023.7/bin/../lib/gcc/arm-none-eabi/12.2.1/thumb/v8-m.main+fp/hard\libc_nano.a(libc_a-freer.o)
 .text          0x00000000        0x0 c:/siliconlabs/simplicitystudio/v5/developer/toolchains/gnu_arm/12.2.rel1_2023.7/bin/../lib/gcc/arm-none-eabi/12.2.1/thumb/v8-m.main+fp/hard\libc_nano.a(libc_a-mallocr.o)
 .data          0x00000000        0x0 c:/siliconlabs/simplicitystudio/v5/developer/toolchains/gnu_arm/12.2.rel1_2023.7/bin/../lib/gcc/arm-none-eabi/12.2.1/thumb/v8-m.main+fp/hard\libc_nano.a(libc_a-mallocr.o)
 .bss           0x00000000        0x0 c:/siliconlabs/simplicitystudio/v5/developer/toolchains/gnu_arm/12.2.rel1_2023.7/bin/../lib/gcc/arm-none-eabi/12.2.1/thumb/v8-m.main+fp/hard\libc_nano.a(libc_a-mallocr.o)
 .text          0x00000000        0x0 c:/siliconlabs/simplicitystudio/v5/developer/toolchains/gnu_arm/12.2.rel1_2023.7/bin/../lib/gcc/arm-none-eabi/12.2.1/thumb/v8-m.main+fp/hard\libc_nano.a(libc_a-mlock.o)
 .data          0x00000000        0x0 c:/siliconlabs/simplicitystudio/v5/developer/toolchains/gnu_arm/12.2.rel1_2023.7/bin/../lib/gcc/arm-none-eabi/12.2.1/thumb/v8-m.main+fp/hard\libc_nano.a(libc_a-mlock.o)
 .bss           0x00000000        0x0 c:/siliconlabs/simplicitystudio/v5/developer/toolchains/gnu_arm/12.2.rel1_2023.7/bin/../lib/gcc/arm-none-eabi/12.2.1/thumb/v8-m.main+fp/hard\libc_nano.a(libc_a-mlock.o)
 .text          0x00000000        0x0 c:/siliconlabs/simplicitystudio/v5/developer/toolchains/gnu_arm/12.2.rel1_2023.7/bin/../lib/gcc/arm-none-eabi/12.2.1/thumb/v8-m.main+fp/hard\libc_nano.a(libc_a-nano-vfprintf.o)
 .data          0x00000000        0x0 c:/siliconlabs/simplicitystudio/v5/developer/toolchains/gnu_arm/12.2.rel1_2023.7/bin/../lib/gcc/arm-none-eabi/12.2.1/thumb/v8-m.main+fp/hard\libc_nano.a(libc_a-nano-vfprintf.o)
 .bss           0x00000000        0x0 c:/siliconlabs/simplicitystudio/v5/developer/toolchains/gnu_arm/12.2.rel1_2023.7/bin/../lib/gcc/arm-none-eabi/12.2.1/thumb/v8-m.main+fp/hard\libc_nano.a(libc_a-nano-vfprintf.o)
 .text.__sprint_r
                0x00000000       0x1a c:/siliconlabs/simplicitystudio/v5/developer/toolchains/gnu_arm/12.2.rel1_2023.7/bin/../lib/gcc/arm-none-eabi/12.2.1/thumb/v8-m.main+fp/hard\libc_nano.a(libc_a-nano-vfprintf.o)
 .text.vfprintf
                0x00000000       0x14 c:/siliconlabs/simplicitystudio/v5/developer/toolchains/gnu_arm/12.2.rel1_2023.7/bin/../lib/gcc/arm-none-eabi/12.2.1/thumb/v8-m.main+fp/hard\libc_nano.a(libc_a-nano-vfprintf.o)
 .text          0x00000000        0x0 c:/siliconlabs/simplicitystudio/v5/developer/toolchains/gnu_arm/12.2.rel1_2023.7/bin/../lib/gcc/arm-none-eabi/12.2.1/thumb/v8-m.main+fp/hard\libc_nano.a(libc_a-nano-vfprintf_i.o)
 .data          0x00000000        0x0 c:/siliconlabs/simplicitystudio/v5/developer/toolchains/gnu_arm/12.2.rel1_2023.7/bin/../lib/gcc/arm-none-eabi/12.2.1/thumb/v8-m.main+fp/hard\libc_nano.a(libc_a-nano-vfprintf_i.o)
 .bss           0x00000000        0x0 c:/siliconlabs/simplicitystudio/v5/developer/toolchains/gnu_arm/12.2.rel1_2023.7/bin/../lib/gcc/arm-none-eabi/12.2.1/thumb/v8-m.main+fp/hard\libc_nano.a(libc_a-nano-vfprintf_i.o)
 .text          0x00000000        0x0 c:/siliconlabs/simplicitystudio/v5/developer/toolchains/gnu_arm/12.2.rel1_2023.7/bin/../lib/gcc/arm-none-eabi/12.2.1/thumb/v8-m.main+fp/hard\libc_nano.a(libc_a-fflush.o)
 .data          0x00000000        0x0 c:/siliconlabs/simplicitystudio/v5/developer/toolchains/gnu_arm/12.2.rel1_2023.7/bin/../lib/gcc/arm-none-eabi/12.2.1/thumb/v8-m.main+fp/hard\libc_nano.a(libc_a-fflush.o)
 .bss           0x00000000        0x0 c:/siliconlabs/simplicitystudio/v5/developer/toolchains/gnu_arm/12.2.rel1_2023.7/bin/../lib/gcc/arm-none-eabi/12.2.1/thumb/v8-m.main+fp/hard\libc_nano.a(libc_a-fflush.o)
 .text.fflush   0x00000000       0x28 c:/siliconlabs/simplicitystudio/v5/developer/toolchains/gnu_arm/12.2.rel1_2023.7/bin/../lib/gcc/arm-none-eabi/12.2.1/thumb/v8-m.main+fp/hard\libc_nano.a(libc_a-fflush.o)
 .text          0x00000000        0x0 c:/siliconlabs/simplicitystudio/v5/developer/toolchains/gnu_arm/12.2.rel1_2023.7/bin/../lib/gcc/arm-none-eabi/12.2.1/thumb/v8-m.main+fp/hard\libc_nano.a(libc_a-fvwrite.o)
 .data          0x00000000        0x0 c:/siliconlabs/simplicitystudio/v5/developer/toolchains/gnu_arm/12.2.rel1_2023.7/bin/../lib/gcc/arm-none-eabi/12.2.1/thumb/v8-m.main+fp/hard\libc_nano.a(libc_a-fvwrite.o)
 .bss           0x00000000        0x0 c:/siliconlabs/simplicitystudio/v5/developer/toolchains/gnu_arm/12.2.rel1_2023.7/bin/../lib/gcc/arm-none-eabi/12.2.1/thumb/v8-m.main+fp/hard\libc_nano.a(libc_a-fvwrite.o)
 .text.__sfvwrite_r
                0x00000000      0x2a0 c:/siliconlabs/simplicitystudio/v5/developer/toolchains/gnu_arm/12.2.rel1_2023.7/bin/../lib/gcc/arm-none-eabi/12.2.1/thumb/v8-m.main+fp/hard\libc_nano.a(libc_a-fvwrite.o)
 .debug_frame   0x00000000       0x3c c:/siliconlabs/simplicitystudio/v5/developer/toolchains/gnu_arm/12.2.rel1_2023.7/bin/../lib/gcc/arm-none-eabi/12.2.1/thumb/v8-m.main+fp/hard\libc_nano.a(libc_a-fvwrite.o)
 .ARM.attributes
                0x00000000       0x38 c:/siliconlabs/simplicitystudio/v5/developer/toolchains/gnu_arm/12.2.rel1_2023.7/bin/../lib/gcc/arm-none-eabi/12.2.1/thumb/v8-m.main+fp/hard\libc_nano.a(libc_a-fvwrite.o)
 .text          0x00000000        0x0 c:/siliconlabs/simplicitystudio/v5/developer/toolchains/gnu_arm/12.2.rel1_2023.7/bin/../lib/gcc/arm-none-eabi/12.2.1/thumb/v8-m.main+fp/hard\libc_nano.a(libc_a-wbuf.o)
 .data          0x00000000        0x0 c:/siliconlabs/simplicitystudio/v5/developer/toolchains/gnu_arm/12.2.rel1_2023.7/bin/../lib/gcc/arm-none-eabi/12.2.1/thumb/v8-m.main+fp/hard\libc_nano.a(libc_a-wbuf.o)
 .bss           0x00000000        0x0 c:/siliconlabs/simplicitystudio/v5/developer/toolchains/gnu_arm/12.2.rel1_2023.7/bin/../lib/gcc/arm-none-eabi/12.2.1/thumb/v8-m.main+fp/hard\libc_nano.a(libc_a-wbuf.o)
 .text.__swbuf  0x00000000       0x10 c:/siliconlabs/simplicitystudio/v5/developer/toolchains/gnu_arm/12.2.rel1_2023.7/bin/../lib/gcc/arm-none-eabi/12.2.1/thumb/v8-m.main+fp/hard\libc_nano.a(libc_a-wbuf.o)
 .text          0x00000000        0x0 c:/siliconlabs/simplicitystudio/v5/developer/toolchains/gnu_arm/12.2.rel1_2023.7/bin/../lib/gcc/arm-none-eabi/12.2.1/thumb/v8-m.main+fp/hard\libc_nano.a(libc_a-wsetup.o)
 .data          0x00000000        0x0 c:/siliconlabs/simplicitystudio/v5/developer/toolchains/gnu_arm/12.2.rel1_2023.7/bin/../lib/gcc/arm-none-eabi/12.2.1/thumb/v8-m.main+fp/hard\libc_nano.a(libc_a-wsetup.o)
 .bss           0x00000000        0x0 c:/siliconlabs/simplicitystudio/v5/developer/toolchains/gnu_arm/12.2.rel1_2023.7/bin/../lib/gcc/arm-none-eabi/12.2.1/thumb/v8-m.main+fp/hard\libc_nano.a(libc_a-wsetup.o)
 .text          0x00000000        0x0 c:/siliconlabs/simplicitystudio/v5/developer/toolchains/gnu_arm/12.2.rel1_2023.7/bin/../lib/gcc/arm-none-eabi/12.2.1/thumb/v8-m.main+fp/hard\libc_nano.a(libc_a-memmove.o)
 .data          0x00000000        0x0 c:/siliconlabs/simplicitystudio/v5/developer/toolchains/gnu_arm/12.2.rel1_2023.7/bin/../lib/gcc/arm-none-eabi/12.2.1/thumb/v8-m.main+fp/hard\libc_nano.a(libc_a-memmove.o)
 .bss           0x00000000        0x0 c:/siliconlabs/simplicitystudio/v5/developer/toolchains/gnu_arm/12.2.rel1_2023.7/bin/../lib/gcc/arm-none-eabi/12.2.1/thumb/v8-m.main+fp/hard\libc_nano.a(libc_a-memmove.o)
 .text.memmove  0x00000000       0x34 c:/siliconlabs/simplicitystudio/v5/developer/toolchains/gnu_arm/12.2.rel1_2023.7/bin/../lib/gcc/arm-none-eabi/12.2.1/thumb/v8-m.main+fp/hard\libc_nano.a(libc_a-memmove.o)
 .debug_frame   0x00000000       0x28 c:/siliconlabs/simplicitystudio/v5/developer/toolchains/gnu_arm/12.2.rel1_2023.7/bin/../lib/gcc/arm-none-eabi/12.2.1/thumb/v8-m.main+fp/hard\libc_nano.a(libc_a-memmove.o)
 .ARM.attributes
                0x00000000       0x38 c:/siliconlabs/simplicitystudio/v5/developer/toolchains/gnu_arm/12.2.rel1_2023.7/bin/../lib/gcc/arm-none-eabi/12.2.1/thumb/v8-m.main+fp/hard\libc_nano.a(libc_a-memmove.o)
 .text          0x00000000        0x0 c:/siliconlabs/simplicitystudio/v5/developer/toolchains/gnu_arm/12.2.rel1_2023.7/bin/../lib/gcc/arm-none-eabi/12.2.1/thumb/v8-m.main+fp/hard\libc_nano.a(libc_a-sbrkr.o)
 .data          0x00000000        0x0 c:/siliconlabs/simplicitystudio/v5/developer/toolchains/gnu_arm/12.2.rel1_2023.7/bin/../lib/gcc/arm-none-eabi/12.2.1/thumb/v8-m.main+fp/hard\libc_nano.a(libc_a-sbrkr.o)
 .bss           0x00000000        0x0 c:/siliconlabs/simplicitystudio/v5/developer/toolchains/gnu_arm/12.2.rel1_2023.7/bin/../lib/gcc/arm-none-eabi/12.2.1/thumb/v8-m.main+fp/hard\libc_nano.a(libc_a-sbrkr.o)
 .text          0x00000000        0x0 c:/siliconlabs/simplicitystudio/v5/developer/toolchains/gnu_arm/12.2.rel1_2023.7/bin/../lib/gcc/arm-none-eabi/12.2.1/thumb/v8-m.main+fp/hard\libc_nano.a(libc_a-memchr-stub.o)
 .data          0x00000000        0x0 c:/siliconlabs/simplicitystudio/v5/developer/toolchains/gnu_arm/12.2.rel1_2023.7/bin/../lib/gcc/arm-none-eabi/12.2.1/thumb/v8-m.main+fp/hard\libc_nano.a(libc_a-memchr-stub.o)
 .bss           0x00000000        0x0 c:/siliconlabs/simplicitystudio/v5/developer/toolchains/gnu_arm/12.2.rel1_2023.7/bin/../lib/gcc/arm-none-eabi/12.2.1/thumb/v8-m.main+fp/hard\libc_nano.a(libc_a-memchr-stub.o)
 .text          0x00000000        0x0 c:/siliconlabs/simplicitystudio/v5/developer/toolchains/gnu_arm/12.2.rel1_2023.7/bin/../lib/gcc/arm-none-eabi/12.2.1/thumb/v8-m.main+fp/hard\libc_nano.a(libc_a-reallocr.o)
 .data          0x00000000        0x0 c:/siliconlabs/simplicitystudio/v5/developer/toolchains/gnu_arm/12.2.rel1_2023.7/bin/../lib/gcc/arm-none-eabi/12.2.1/thumb/v8-m.main+fp/hard\libc_nano.a(libc_a-reallocr.o)
 .bss           0x00000000        0x0 c:/siliconlabs/simplicitystudio/v5/developer/toolchains/gnu_arm/12.2.rel1_2023.7/bin/../lib/gcc/arm-none-eabi/12.2.1/thumb/v8-m.main+fp/hard\libc_nano.a(libc_a-reallocr.o)
 .text._realloc_r
                0x00000000       0x5c c:/siliconlabs/simplicitystudio/v5/developer/toolchains/gnu_arm/12.2.rel1_2023.7/bin/../lib/gcc/arm-none-eabi/12.2.1/thumb/v8-m.main+fp/hard\libc_nano.a(libc_a-reallocr.o)
 .debug_frame   0x00000000       0x3c c:/siliconlabs/simplicitystudio/v5/developer/toolchains/gnu_arm/12.2.rel1_2023.7/bin/../lib/gcc/arm-none-eabi/12.2.1/thumb/v8-m.main+fp/hard\libc_nano.a(libc_a-reallocr.o)
 .ARM.attributes
                0x00000000       0x38 c:/siliconlabs/simplicitystudio/v5/developer/toolchains/gnu_arm/12.2.rel1_2023.7/bin/../lib/gcc/arm-none-eabi/12.2.1/thumb/v8-m.main+fp/hard\libc_nano.a(libc_a-reallocr.o)
 .text          0x00000000        0x0 c:/siliconlabs/simplicitystudio/v5/developer/toolchains/gnu_arm/12.2.rel1_2023.7/bin/../lib/gcc/arm-none-eabi/12.2.1/thumb/v8-m.main+fp/hard\libc_nano.a(libc_a-makebuf.o)
 .data          0x00000000        0x0 c:/siliconlabs/simplicitystudio/v5/developer/toolchains/gnu_arm/12.2.rel1_2023.7/bin/../lib/gcc/arm-none-eabi/12.2.1/thumb/v8-m.main+fp/hard\libc_nano.a(libc_a-makebuf.o)
 .bss           0x00000000        0x0 c:/siliconlabs/simplicitystudio/v5/developer/toolchains/gnu_arm/12.2.rel1_2023.7/bin/../lib/gcc/arm-none-eabi/12.2.1/thumb/v8-m.main+fp/hard\libc_nano.a(libc_a-makebuf.o)
 .text          0x00000000        0x0 c:/siliconlabs/simplicitystudio/v5/developer/toolchains/gnu_arm/12.2.rel1_2023.7/bin/../lib/gcc/arm-none-eabi/12.2.1/thumb/v8-m.main+fp/hard\libc_nano.a(libc_a-fstatr.o)
 .data          0x00000000        0x0 c:/siliconlabs/simplicitystudio/v5/developer/toolchains/gnu_arm/12.2.rel1_2023.7/bin/../lib/gcc/arm-none-eabi/12.2.1/thumb/v8-m.main+fp/hard\libc_nano.a(libc_a-fstatr.o)
 .bss           0x00000000        0x0 c:/siliconlabs/simplicitystudio/v5/developer/toolchains/gnu_arm/12.2.rel1_2023.7/bin/../lib/gcc/arm-none-eabi/12.2.1/thumb/v8-m.main+fp/hard\libc_nano.a(libc_a-fstatr.o)
 .text          0x00000000        0x0 c:/siliconlabs/simplicitystudio/v5/developer/toolchains/gnu_arm/12.2.rel1_2023.7/bin/../lib/gcc/arm-none-eabi/12.2.1/thumb/v8-m.main+fp/hard\libc_nano.a(libc_a-isattyr.o)
 .data          0x00000000        0x0 c:/siliconlabs/simplicitystudio/v5/developer/toolchains/gnu_arm/12.2.rel1_2023.7/bin/../lib/gcc/arm-none-eabi/12.2.1/thumb/v8-m.main+fp/hard\libc_nano.a(libc_a-isattyr.o)
 .bss           0x00000000        0x0 c:/siliconlabs/simplicitystudio/v5/developer/toolchains/gnu_arm/12.2.rel1_2023.7/bin/../lib/gcc/arm-none-eabi/12.2.1/thumb/v8-m.main+fp/hard\libc_nano.a(libc_a-isattyr.o)
 .text          0x00000000        0x0 c:/siliconlabs/simplicitystudio/v5/developer/toolchains/gnu_arm/12.2.rel1_2023.7/bin/../lib/gcc/arm-none-eabi/12.2.1/thumb/v8-m.main+fp/hard\libc_nano.a(libc_a-msizer.o)
 .data          0x00000000        0x0 c:/siliconlabs/simplicitystudio/v5/developer/toolchains/gnu_arm/12.2.rel1_2023.7/bin/../lib/gcc/arm-none-eabi/12.2.1/thumb/v8-m.main+fp/hard\libc_nano.a(libc_a-msizer.o)
 .bss           0x00000000        0x0 c:/siliconlabs/simplicitystudio/v5/developer/toolchains/gnu_arm/12.2.rel1_2023.7/bin/../lib/gcc/arm-none-eabi/12.2.1/thumb/v8-m.main+fp/hard\libc_nano.a(libc_a-msizer.o)
 .text._malloc_usable_size_r
                0x00000000       0x10 c:/siliconlabs/simplicitystudio/v5/developer/toolchains/gnu_arm/12.2.rel1_2023.7/bin/../lib/gcc/arm-none-eabi/12.2.1/thumb/v8-m.main+fp/hard\libc_nano.a(libc_a-msizer.o)
 .debug_frame   0x00000000       0x20 c:/siliconlabs/simplicitystudio/v5/developer/toolchains/gnu_arm/12.2.rel1_2023.7/bin/../lib/gcc/arm-none-eabi/12.2.1/thumb/v8-m.main+fp/hard\libc_nano.a(libc_a-msizer.o)
 .ARM.attributes
                0x00000000       0x38 c:/siliconlabs/simplicitystudio/v5/developer/toolchains/gnu_arm/12.2.rel1_2023.7/bin/../lib/gcc/arm-none-eabi/12.2.1/thumb/v8-m.main+fp/hard\libc_nano.a(libc_a-msizer.o)
 .text          0x00000000        0x0 c:/siliconlabs/simplicitystudio/v5/developer/toolchains/gnu_arm/12.2.rel1_2023.7/bin/../lib/gcc/arm-none-eabi/12.2.1/thumb/v8-m.main+fp/hard/crtend.o
 .data          0x00000000        0x0 c:/siliconlabs/simplicitystudio/v5/developer/toolchains/gnu_arm/12.2.rel1_2023.7/bin/../lib/gcc/arm-none-eabi/12.2.1/thumb/v8-m.main+fp/hard/crtend.o
 .bss           0x00000000        0x0 c:/siliconlabs/simplicitystudio/v5/developer/toolchains/gnu_arm/12.2.rel1_2023.7/bin/../lib/gcc/arm-none-eabi/12.2.1/thumb/v8-m.main+fp/hard/crtend.o
 .rodata.all_implied_fbits
                0x00000000       0x24 c:/siliconlabs/simplicitystudio/v5/developer/toolchains/gnu_arm/12.2.rel1_2023.7/bin/../lib/gcc/arm-none-eabi/12.2.1/thumb/v8-m.main+fp/hard/crtend.o
 .eh_frame      0x00000000        0x4 c:/siliconlabs/simplicitystudio/v5/developer/toolchains/gnu_arm/12.2.rel1_2023.7/bin/../lib/gcc/arm-none-eabi/12.2.1/thumb/v8-m.main+fp/hard/crtend.o
 .text          0x00000000        0x0 c:/siliconlabs/simplicitystudio/v5/developer/toolchains/gnu_arm/12.2.rel1_2023.7/bin/../lib/gcc/arm-none-eabi/12.2.1/thumb/v8-m.main+fp/hard/crtn.o
 .data          0x00000000        0x0 c:/siliconlabs/simplicitystudio/v5/developer/toolchains/gnu_arm/12.2.rel1_2023.7/bin/../lib/gcc/arm-none-eabi/12.2.1/thumb/v8-m.main+fp/hard/crtn.o
 .bss           0x00000000        0x0 c:/siliconlabs/simplicitystudio/v5/developer/toolchains/gnu_arm/12.2.rel1_2023.7/bin/../lib/gcc/arm-none-eabi/12.2.1/thumb/v8-m.main+fp/hard/crtn.o

Memory Configuration

Name             Origin             Length             Attributes
FLASH            0x00000000         0x0007e000         xr
RAM              0x20000000         0x00008000         xrw
*default*        0x00000000         0xffffffff

Linker script and memory map

LOAD c:/siliconlabs/simplicitystudio/v5/developer/toolchains/gnu_arm/12.2.rel1_2023.7/bin/../lib/gcc/arm-none-eabi/12.2.1/thumb/v8-m.main+fp/hard/crti.o
LOAD c:/siliconlabs/simplicitystudio/v5/developer/toolchains/gnu_arm/12.2.rel1_2023.7/bin/../lib/gcc/arm-none-eabi/12.2.1/thumb/v8-m.main+fp/hard/crtbegin.o
LOAD c:/siliconlabs/simplicitystudio/v5/developer/toolchains/gnu_arm/12.2.rel1_2023.7/bin/../lib/gcc/arm-none-eabi/12.2.1/thumb/v8-m.main+fp/hard/crt0.o
START GROUP
LOAD ./app.o
LOAD ./main.o
LOAD ./autogen/sl_board_default_init.o
LOAD ./autogen/sl_device_init_clocks.o
LOAD ./autogen/sl_event_handler.o
LOAD ./autogen/sl_iostream_handles.o
LOAD ./autogen/sl_power_manager_handler.o
LOAD ./autogen/sl_simple_button_instances.o
LOAD ./autogen/sl_simple_led_instances.o
LOAD ./autogen/sl_uartdrv_init.o
LOAD ./gecko_sdk_4.5.0/app/common/util/app_button_press/app_button_press.o
LOAD ./gecko_sdk_4.5.0/hardware/board/src/sl_board_control_gpio.o
LOAD ./gecko_sdk_4.5.0/hardware/board/src/sl_board_init.o
LOAD ./gecko_sdk_4.5.0/hardware/driver/configuration_over_swo/src/sl_cos.o
LOAD ./gecko_sdk_4.5.0/platform/Device/SiliconLabs/EFR32BG22/Source/startup_efr32bg22.o
LOAD ./gecko_sdk_4.5.0/platform/Device/SiliconLabs/EFR32BG22/Source/system_efr32bg22.o
LOAD ./gecko_sdk_4.5.0/platform/common/src/sl_assert.o
LOAD ./gecko_sdk_4.5.0/platform/common/src/sl_slist.o
LOAD ./gecko_sdk_4.5.0/platform/common/src/sl_stdio.o
LOAD ./gecko_sdk_4.5.0/platform/common/src/sl_string.o
LOAD ./gecko_sdk_4.5.0/platform/common/src/sl_syscalls.o
LOAD ./gecko_sdk_4.5.0/platform/common/toolchain/src/sl_memory.o
LOAD ./gecko_sdk_4.5.0/platform/driver/button/src/sl_button.o
LOAD ./gecko_sdk_4.5.0/platform/driver/button/src/sl_simple_button.o
LOAD ./gecko_sdk_4.5.0/platform/driver/debug/src/sl_debug_swo.o
LOAD ./gecko_sdk_4.5.0/platform/driver/leddrv/src/sl_led.o
LOAD ./gecko_sdk_4.5.0/platform/driver/leddrv/src/sl_simple_led.o
LOAD ./gecko_sdk_4.5.0/platform/emdrv/dmadrv/src/dmadrv.o
LOAD ./gecko_sdk_4.5.0/platform/emdrv/gpiointerrupt/src/gpiointerrupt.o
LOAD ./gecko_sdk_4.5.0/platform/emdrv/uartdrv/src/uartdrv.o
LOAD ./gecko_sdk_4.5.0/platform/emlib/src/em_burtc.o
LOAD ./gecko_sdk_4.5.0/platform/emlib/src/em_cmu.o
LOAD ./gecko_sdk_4.5.0/platform/emlib/src/em_core.o
LOAD ./gecko_sdk_4.5.0/platform/emlib/src/em_emu.o
LOAD ./gecko_sdk_4.5.0/platform/emlib/src/em_eusart.o
LOAD ./gecko_sdk_4.5.0/platform/emlib/src/em_gpio.o
LOAD ./gecko_sdk_4.5.0/platform/emlib/src/em_ldma.o
LOAD ./gecko_sdk_4.5.0/platform/emlib/src/em_msc.o
LOAD ./gecko_sdk_4.5.0/platform/emlib/src/em_rtcc.o
LOAD ./gecko_sdk_4.5.0/platform/emlib/src/em_system.o
LOAD ./gecko_sdk_4.5.0/platform/emlib/src/em_timer.o
LOAD ./gecko_sdk_4.5.0/platform/emlib/src/em_usart.o
LOAD ./gecko_sdk_4.5.0/platform/service/device_init/src/sl_device_init_dcdc_s2.o
LOAD ./gecko_sdk_4.5.0/platform/service/device_init/src/sl_device_init_emu_s2.o
LOAD ./gecko_sdk_4.5.0/platform/service/device_init/src/sl_device_init_hfxo_s2.o
LOAD ./gecko_sdk_4.5.0/platform/service/device_init/src/sl_device_init_lfxo_s2.o
LOAD ./gecko_sdk_4.5.0/platform/service/device_init/src/sl_device_init_nvic.o
LOAD ./gecko_sdk_4.5.0/platform/service/iostream/src/sl_iostream.o
LOAD ./gecko_sdk_4.5.0/platform/service/iostream/src/sl_iostream_retarget_stdio.o
LOAD ./gecko_sdk_4.5.0/platform/service/iostream/src/sl_iostream_uart.o
LOAD ./gecko_sdk_4.5.0/platform/service/iostream/src/sl_iostream_usart.o
LOAD ./gecko_sdk_4.5.0/platform/service/power_manager/src/sl_power_manager.o
LOAD ./gecko_sdk_4.5.0/platform/service/power_manager/src/sl_power_manager_debug.o
LOAD ./gecko_sdk_4.5.0/platform/service/power_manager/src/sl_power_manager_hal_s2.o
LOAD ./gecko_sdk_4.5.0/platform/service/sleeptimer/src/sl_sleeptimer.o
LOAD ./gecko_sdk_4.5.0/platform/service/sleeptimer/src/sl_sleeptimer_hal_burtc.o
LOAD ./gecko_sdk_4.5.0/platform/service/sleeptimer/src/sl_sleeptimer_hal_prortc.o
LOAD ./gecko_sdk_4.5.0/platform/service/sleeptimer/src/sl_sleeptimer_hal_rtcc.o
LOAD ./gecko_sdk_4.5.0/platform/service/sleeptimer/src/sl_sleeptimer_hal_timer.o
LOAD ./gecko_sdk_4.5.0/platform/service/system/src/sl_system_init.o
LOAD ./gecko_sdk_4.5.0/platform/service/system/src/sl_system_process_action.o
LOAD ./gecko_sdk_4.5.0/platform/service/udelay/src/sl_udelay.o
LOAD ./gecko_sdk_4.5.0/platform/service/udelay/src/sl_udelay_armv6m_gcc.o
LOAD c:/siliconlabs/simplicitystudio/v5/developer/toolchains/gnu_arm/12.2.rel1_2023.7/bin/../lib/gcc/arm-none-eabi/12.2.1/thumb/v8-m.main+fp/hard\libgcc.a
LOAD c:/siliconlabs/simplicitystudio/v5/developer/toolchains/gnu_arm/12.2.rel1_2023.7/bin/../lib/gcc/arm-none-eabi/12.2.1/thumb/v8-m.main+fp/hard\libc_nano.a
LOAD c:/siliconlabs/simplicitystudio/v5/developer/toolchains/gnu_arm/12.2.rel1_2023.7/bin/../lib/gcc/arm-none-eabi/12.2.1/thumb/v8-m.main+fp/hard\libm.a
LOAD c:/siliconlabs/simplicitystudio/v5/developer/toolchains/gnu_arm/12.2.rel1_2023.7/bin/../lib/gcc/arm-none-eabi/12.2.1/thumb/v8-m.main+fp/hard\libnosys.a
END GROUP
START GROUP
LOAD c:/siliconlabs/simplicitystudio/v5/developer/toolchains/gnu_arm/12.2.rel1_2023.7/bin/../lib/gcc/arm-none-eabi/12.2.1/thumb/v8-m.main+fp/hard\libgcc.a
LOAD c:/siliconlabs/simplicitystudio/v5/developer/toolchains/gnu_arm/12.2.rel1_2023.7/bin/../lib/gcc/arm-none-eabi/12.2.1/thumb/v8-m.main+fp/hard\libc_nano.a
LOAD c:/siliconlabs/simplicitystudio/v5/developer/toolchains/gnu_arm/12.2.rel1_2023.7/bin/../lib/gcc/arm-none-eabi/12.2.1/thumb/v8-m.main+fp/hard\libnosys.a
END GROUP
START GROUP
LOAD c:/siliconlabs/simplicitystudio/v5/developer/toolchains/gnu_arm/12.2.rel1_2023.7/bin/../lib/gcc/arm-none-eabi/12.2.1/thumb/v8-m.main+fp/hard\libgcc.a
LOAD c:/siliconlabs/simplicitystudio/v5/developer/toolchains/gnu_arm/12.2.rel1_2023.7/bin/../lib/gcc/arm-none-eabi/12.2.1/thumb/v8-m.main+fp/hard\libg_nano.a
LOAD c:/siliconlabs/simplicitystudio/v5/developer/toolchains/gnu_arm/12.2.rel1_2023.7/bin/../lib/gcc/arm-none-eabi/12.2.1/thumb/v8-m.main+fp/hard\libc_nano.a
END GROUP
START GROUP
LOAD c:/siliconlabs/simplicitystudio/v5/developer/toolchains/gnu_arm/12.2.rel1_2023.7/bin/../lib/gcc/arm-none-eabi/12.2.1/thumb/v8-m.main+fp/hard\libgcc.a
LOAD c:/siliconlabs/simplicitystudio/v5/developer/toolchains/gnu_arm/12.2.rel1_2023.7/bin/../lib/gcc/arm-none-eabi/12.2.1/thumb/v8-m.main+fp/hard\libc_nano.a
END GROUP
LOAD c:/siliconlabs/simplicitystudio/v5/developer/toolchains/gnu_arm/12.2.rel1_2023.7/bin/../lib/gcc/arm-none-eabi/12.2.1/thumb/v8-m.main+fp/hard/crtend.o
LOAD c:/siliconlabs/simplicitystudio/v5/developer/toolchains/gnu_arm/12.2.rel1_2023.7/bin/../lib/gcc/arm-none-eabi/12.2.1/thumb/v8-m.main+fp/hard/crtn.o

.text           0x00000000     0x5f28
                0x00000000                linker_vectors_begin = .
 *(.vectors)
 .vectors       0x00000000      0x140 ./gecko_sdk_4.5.0/platform/Device/SiliconLabs/EFR32BG22/Source/startup_efr32bg22.o
                0x00000000                __Vectors
                0x00000140                linker_vectors_end = .
                0x00000140                __Vectors_End = .
                0x00000140                __Vectors_Size = (__Vectors_End - __Vectors)
                0x00000140                linker_code_begin = .
 *(SORT_BY_ALIGNMENT(.text*))
 .text.deregister_tm_clones
                0x00000140       0x1c c:/siliconlabs/simplicitystudio/v5/developer/toolchains/gnu_arm/12.2.rel1_2023.7/bin/../lib/gcc/arm-none-eabi/12.2.1/thumb/v8-m.main+fp/hard/crtbegin.o
 .text.register_tm_clones
                0x0000015c       0x28 c:/siliconlabs/simplicitystudio/v5/developer/toolchains/gnu_arm/12.2.rel1_2023.7/bin/../lib/gcc/arm-none-eabi/12.2.1/thumb/v8-m.main+fp/hard/crtbegin.o
 .text.__do_global_dtors_aux
                0x00000184       0x28 c:/siliconlabs/simplicitystudio/v5/developer/toolchains/gnu_arm/12.2.rel1_2023.7/bin/../lib/gcc/arm-none-eabi/12.2.1/thumb/v8-m.main+fp/hard/crtbegin.o
 .text.frame_dummy
                0x000001ac       0x24 c:/siliconlabs/simplicitystudio/v5/developer/toolchains/gnu_arm/12.2.rel1_2023.7/bin/../lib/gcc/arm-none-eabi/12.2.1/thumb/v8-m.main+fp/hard/crtbegin.o
 .text          0x000001d0       0x7c c:/siliconlabs/simplicitystudio/v5/developer/toolchains/gnu_arm/12.2.rel1_2023.7/bin/../lib/gcc/arm-none-eabi/12.2.1/thumb/v8-m.main+fp/hard/crt0.o
                0x000001d0                _stack_init
                0x000001d8                _start
                0x000001d8                _mainCRTStartup
 .text.app_init
                0x0000024c       0x78 ./app.o
                0x0000024c                app_init
 .text.app_process_action
                0x000002c4       0x64 ./app.o
                0x000002c4                app_process_action
 .text.sl_device_init_clocks
                0x00000328       0x9c ./autogen/sl_device_init_clocks.o
                0x00000328                sl_device_init_clocks
 .text.sl_platform_init
                0x000003c4       0x5c ./autogen/sl_event_handler.o
                0x000003c4                sl_platform_init
 .text.sl_simple_button_init_instances
                0x00000420        0xc ./autogen/sl_simple_button_instances.o
                0x00000420                sl_simple_button_init_instances
 .text.sl_simple_led_init_instances
                0x0000042c        0xc ./autogen/sl_simple_led_instances.o
                0x0000042c                sl_simple_led_init_instances
 .text.sl_uartdrv_set_default
                0x00000438       0x14 ./autogen/sl_uartdrv_init.o
                0x00000438                sl_uartdrv_set_default
 .text.sl_uartdrv_init_instances
                0x0000044c       0x20 ./autogen/sl_uartdrv_init.o
                0x0000044c                sl_uartdrv_init_instances
 .text.sl_uartdrv_get_default
                0x0000046c        0xc ./autogen/sl_uartdrv_init.o
                0x0000046c                sl_uartdrv_get_default
 .text.app_button_press_init
                0x00000478       0x10 ./gecko_sdk_4.5.0/app/common/util/app_button_press/app_button_press.o
                0x00000478                app_button_press_init
 .text.sl_button_on_change
                0x00000488       0x7c ./gecko_sdk_4.5.0/app/common/util/app_button_press/app_button_press.o
                0x00000488                sl_button_on_change
 .text.app_button_press_step
                0x00000504       0x1c ./gecko_sdk_4.5.0/app/common/util/app_button_press/app_button_press.o
                0x00000504                app_button_press_step
 .text.app_button_press_is_ok_to_sleep
                0x00000520       0x1c ./gecko_sdk_4.5.0/app/common/util/app_button_press/app_button_press.o
                0x00000520                app_button_press_is_ok_to_sleep
 .text.app_button_press_sleep_on_isr_exit
                0x0000053c       0x20 ./gecko_sdk_4.5.0/app/common/util/app_button_press/app_button_press.o
                0x0000053c                app_button_press_sleep_on_isr_exit
 .text.sl_cos_send_config
                0x0000055c       0x4c ./gecko_sdk_4.5.0/hardware/driver/configuration_over_swo/src/sl_cos.o
                0x0000055c                sl_cos_send_config
 .text.CopyRamFuncs
                0x000005a8       0x1c ./gecko_sdk_4.5.0/platform/Device/SiliconLabs/EFR32BG22/Source/startup_efr32bg22.o
                0x000005a8                CopyRamFuncs
 .text.Reset_Handler
                0x000005c4       0x64 ./gecko_sdk_4.5.0/platform/Device/SiliconLabs/EFR32BG22/Source/startup_efr32bg22.o
                0x000005c4                Reset_Handler
 .text.SystemInit
                0x00000628       0x64 ./gecko_sdk_4.5.0/platform/Device/SiliconLabs/EFR32BG22/Source/system_efr32bg22.o
                0x00000628                SystemInit
 .text.SystemHFRCODPLLClockGet
                0x0000068c        0xc ./gecko_sdk_4.5.0/platform/Device/SiliconLabs/EFR32BG22/Source/system_efr32bg22.o
                0x0000068c                SystemHFRCODPLLClockGet
 .text.SystemSYSCLKGet
                0x00000698       0x34 ./gecko_sdk_4.5.0/platform/Device/SiliconLabs/EFR32BG22/Source/system_efr32bg22.o
                0x00000698                SystemSYSCLKGet
 .text.SystemHCLKGet
                0x000006cc       0x24 ./gecko_sdk_4.5.0/platform/Device/SiliconLabs/EFR32BG22/Source/system_efr32bg22.o
                0x000006cc                SystemHCLKGet
 .text.SystemMaxCoreClockGet
                0x000006f0        0x8 ./gecko_sdk_4.5.0/platform/Device/SiliconLabs/EFR32BG22/Source/system_efr32bg22.o
                0x000006f0                SystemMaxCoreClockGet
 .text.SystemHFXOClockGet
                0x000006f8        0xc ./gecko_sdk_4.5.0/platform/Device/SiliconLabs/EFR32BG22/Source/system_efr32bg22.o
                0x000006f8                SystemHFXOClockGet
 .text.SystemHFXOClockSet
                0x00000704       0x20 ./gecko_sdk_4.5.0/platform/Device/SiliconLabs/EFR32BG22/Source/system_efr32bg22.o
                0x00000704                SystemHFXOClockSet
 .text.SystemFSRCOClockGet
                0x00000724        0x8 ./gecko_sdk_4.5.0/platform/Device/SiliconLabs/EFR32BG22/Source/system_efr32bg22.o
                0x00000724                SystemFSRCOClockGet
 .text.SystemLFXOClockGet
                0x0000072c        0xc ./gecko_sdk_4.5.0/platform/Device/SiliconLabs/EFR32BG22/Source/system_efr32bg22.o
                0x0000072c                SystemLFXOClockGet
 .text._sbrk    0x00000738       0x20 ./gecko_sdk_4.5.0/platform/common/toolchain/src/sl_memory.o
                0x00000738                _sbrk
 .text.GPIO_PinInGet
                0x00000758       0x44 ./gecko_sdk_4.5.0/platform/driver/button/src/sl_simple_button.o
 .text.sl_simple_button_init
                0x0000079c       0xb4 ./gecko_sdk_4.5.0/platform/driver/button/src/sl_simple_button.o
                0x0000079c                sl_simple_button_init
 .text.sl_debug_swo_init
                0x00000850       0xc0 ./gecko_sdk_4.5.0/platform/driver/debug/src/sl_debug_swo.o
                0x00000850                sl_debug_swo_init
 .text.sl_debug_swo_write_u8
                0x00000910       0x44 ./gecko_sdk_4.5.0/platform/driver/debug/src/sl_debug_swo.o
                0x00000910                sl_debug_swo_write_u8
 .text.GPIO_PinOutClear
                0x00000954       0x40 ./gecko_sdk_4.5.0/platform/driver/leddrv/src/sl_simple_led.o
 .text.GPIO_PinOutSet
                0x00000994       0x40 ./gecko_sdk_4.5.0/platform/driver/leddrv/src/sl_simple_led.o
 .text.sl_simple_led_toggle
                0x000009d4       0x40 ./gecko_sdk_4.5.0/platform/driver/leddrv/src/sl_simple_led.o
                0x000009d4                sl_simple_led_toggle
 .text.sl_simple_led_get_state
                0x00000a14       0x4c ./gecko_sdk_4.5.0/platform/driver/leddrv/src/sl_simple_led.o
                0x00000a14                sl_simple_led_get_state
 .text.DMADRV_AllocateChannel
                0x00000a60       0x60 ./gecko_sdk_4.5.0/platform/emdrv/dmadrv/src/dmadrv.o
                0x00000a60                DMADRV_AllocateChannel
 .text.DMADRV_Init
                0x00000ac0       0x68 ./gecko_sdk_4.5.0/platform/emdrv/dmadrv/src/dmadrv.o
                0x00000ac0                DMADRV_Init
 .text.DMADRV_PauseTransfer
                0x00000b28       0x40 ./gecko_sdk_4.5.0/platform/emdrv/dmadrv/src/dmadrv.o
                0x00000b28                DMADRV_PauseTransfer
 .text.DMADRV_ResumeTransfer
                0x00000b68       0x40 ./gecko_sdk_4.5.0/platform/emdrv/dmadrv/src/dmadrv.o
                0x00000b68                DMADRV_ResumeTransfer
 .text.DMADRV_TransferActive
                0x00000ba8       0x4c ./gecko_sdk_4.5.0/platform/emdrv/dmadrv/src/dmadrv.o
                0x00000ba8                DMADRV_TransferActive
 .text.LDMA_IRQHandler
                0x00000bf4       0x74 ./gecko_sdk_4.5.0/platform/emdrv/dmadrv/src/dmadrv.o
                0x00000bf4                LDMA_IRQHandler
 .text.GPIOINT_IRQDispatcher
                0x00000c68       0x38 ./gecko_sdk_4.5.0/platform/emdrv/gpiointerrupt/src/gpiointerrupt.o
 .text.GPIOINT_Init
                0x00000ca0       0x30 ./gecko_sdk_4.5.0/platform/emdrv/gpiointerrupt/src/gpiointerrupt.o
                0x00000ca0                GPIOINT_Init
 .text.GPIOINT_CallbackRegister
                0x00000cd0       0x24 ./gecko_sdk_4.5.0/platform/emdrv/gpiointerrupt/src/gpiointerrupt.o
                0x00000cd0                GPIOINT_CallbackRegister
 .text.GPIOINT_EM4WUCallbackRegisterExt
                0x00000cf4       0x70 ./gecko_sdk_4.5.0/platform/emdrv/gpiointerrupt/src/gpiointerrupt.o
                0x00000cf4                GPIOINT_EM4WUCallbackRegisterExt
 .text.GPIOINT_CallbackRegisterExt
                0x00000d64       0x64 ./gecko_sdk_4.5.0/platform/emdrv/gpiointerrupt/src/gpiointerrupt.o
                0x00000d64                GPIOINT_CallbackRegisterExt
 .text.GPIO_EVEN_IRQHandler
                0x00000dc8       0x24 ./gecko_sdk_4.5.0/platform/emdrv/gpiointerrupt/src/gpiointerrupt.o
                0x00000dc8                GPIO_EVEN_IRQHandler
 .text.GPIO_ODD_IRQHandler
                0x00000dec       0x24 ./gecko_sdk_4.5.0/platform/emdrv/gpiointerrupt/src/gpiointerrupt.o
                0x00000dec                GPIO_ODD_IRQHandler
 .text.CheckParams
                0x00000e10       0x24 ./gecko_sdk_4.5.0/platform/emdrv/uartdrv/src/uartdrv.o
 .text.addHandle
                0x00000e34       0x50 ./gecko_sdk_4.5.0/platform/emdrv/uartdrv/src/uartdrv.o
 .text.GPIO_PinOutClear
                0x00000e84       0x40 ./gecko_sdk_4.5.0/platform/emdrv/uartdrv/src/uartdrv.o
 .text.GPIO_PinOutSet
                0x00000ec4       0x40 ./gecko_sdk_4.5.0/platform/emdrv/uartdrv/src/uartdrv.o
 .text.InitializeDma
                0x00000f04       0x2c ./gecko_sdk_4.5.0/platform/emdrv/uartdrv/src/uartdrv.o
 .text.HwFcGetClearToSendPin
                0x00000f30       0x50 ./gecko_sdk_4.5.0/platform/emdrv/uartdrv/src/uartdrv.o
 .text.HwFcManageClearToSend
                0x00000f80       0x80 ./gecko_sdk_4.5.0/platform/emdrv/uartdrv/src/uartdrv.o
 .text.EnableTransmitter
                0x00001000       0x4c ./gecko_sdk_4.5.0/platform/emdrv/uartdrv/src/uartdrv.o
 .text.UARTDRV_ForceTransmit
                0x0000104c      0x10c ./gecko_sdk_4.5.0/platform/emdrv/uartdrv/src/uartdrv.o
                0x0000104c                UARTDRV_ForceTransmit
 .text.UARTDRV_PauseTransmit
                0x00001158       0x30 ./gecko_sdk_4.5.0/platform/emdrv/uartdrv/src/uartdrv.o
                0x00001158                UARTDRV_PauseTransmit
 .text.UARTDRV_ResumeTransmit
                0x00001188       0x40 ./gecko_sdk_4.5.0/platform/emdrv/uartdrv/src/uartdrv.o
                0x00001188                UARTDRV_ResumeTransmit
 .text.UARTDRV_InitEuart
                0x000011c8      0x224 ./gecko_sdk_4.5.0/platform/emdrv/uartdrv/src/uartdrv.o
                0x000011c8                UARTDRV_InitEuart
 .text.sl_uartdrv_sleep_on_isr_exit
                0x000013ec       0x38 ./gecko_sdk_4.5.0/platform/emdrv/uartdrv/src/uartdrv.o
                0x000013ec                sl_uartdrv_sleep_on_isr_exit
 .text.EMU_VScaleGet
                0x00001424       0x18 ./gecko_sdk_4.5.0/platform/emlib/src/em_cmu.o
 .text.em01GrpaClkGet
                0x0000143c       0x48 ./gecko_sdk_4.5.0/platform/emlib/src/em_cmu.o
 .text.iadcClkGet
                0x00001484       0x54 ./gecko_sdk_4.5.0/platform/emlib/src/em_cmu.o
 .text.em01GrpbClkGet
                0x000014d8       0x74 ./gecko_sdk_4.5.0/platform/emlib/src/em_cmu.o
 .text.em23GrpaClkGet
                0x0000154c       0x48 ./gecko_sdk_4.5.0/platform/emlib/src/em_cmu.o
 .text.wdog0ClkGet
                0x00001594       0x64 ./gecko_sdk_4.5.0/platform/emlib/src/em_cmu.o
 .text.rtccClkGet
                0x000015f8       0x54 ./gecko_sdk_4.5.0/platform/emlib/src/em_cmu.o
 .text.em4GrpaClkGet
                0x0000164c       0x48 ./gecko_sdk_4.5.0/platform/emlib/src/em_cmu.o
 .text.euart0ClkGet
                0x00001694       0x48 ./gecko_sdk_4.5.0/platform/emlib/src/em_cmu.o
 .text.CMU_ClockDivGet
                0x000016dc       0x84 ./gecko_sdk_4.5.0/platform/emlib/src/em_cmu.o
                0x000016dc                CMU_ClockDivGet
 .text.flashWaitStateControl
                0x00001760       0x4c ./gecko_sdk_4.5.0/platform/emlib/src/em_cmu.o
 .text.CMU_ClockEnable
                0x000017ac       0x54 ./gecko_sdk_4.5.0/platform/emlib/src/em_cmu.o
                0x000017ac                CMU_ClockEnable
 .text.CMU_ClockFreqGet
                0x00001800      0x198 ./gecko_sdk_4.5.0/platform/emlib/src/em_cmu.o
                0x00001800                CMU_ClockFreqGet
 .text.rhclkPrescOptimize
                0x00001998       0x20 ./gecko_sdk_4.5.0/platform/emlib/src/em_cmu.o
 .text.CMU_ClockSelectGet
                0x000019b8      0x168 ./gecko_sdk_4.5.0/platform/emlib/src/em_cmu.o
                0x000019b8                CMU_ClockSelectGet
 .text.sli_em_cmu_HFXOSetForceEnable
                0x00001b20       0x18 ./gecko_sdk_4.5.0/platform/emlib/src/em_cmu.o
                0x00001b20                sli_em_cmu_HFXOSetForceEnable
 .text.CMU_HFXOInit
                0x00001b38      0x1dc ./gecko_sdk_4.5.0/platform/emlib/src/em_cmu.o
                0x00001b38                CMU_HFXOInit
 .text.CMU_HFXOCTuneDeltaGet
                0x00001d14        0xc ./gecko_sdk_4.5.0/platform/emlib/src/em_cmu.o
                0x00001d14                CMU_HFXOCTuneDeltaGet
 .text.CMU_LFXOInit
                0x00001d20       0xc4 ./gecko_sdk_4.5.0/platform/emlib/src/em_cmu.o
                0x00001d20                CMU_LFXOInit
 .text.CMU_LFXOPrecisionSet
                0x00001de4        0xc ./gecko_sdk_4.5.0/platform/emlib/src/em_cmu.o
                0x00001de4                CMU_LFXOPrecisionSet
 .text.CMU_HFXOPrecisionSet
                0x00001df0        0xc ./gecko_sdk_4.5.0/platform/emlib/src/em_cmu.o
                0x00001df0                CMU_HFXOPrecisionSet
 .text.CMU_ClockDivSet
                0x00001dfc      0x104 ./gecko_sdk_4.5.0/platform/emlib/src/em_cmu.o
                0x00001dfc                CMU_ClockDivSet
 .text.sli_em_cmu_SYSCLKInitPreClockSelect
                0x00001f00       0x20 ./gecko_sdk_4.5.0/platform/emlib/src/em_cmu.o
                0x00001f00                sli_em_cmu_SYSCLKInitPreClockSelect
 .text.pclkDivOptimize
                0x00001f20       0x24 ./gecko_sdk_4.5.0/platform/emlib/src/em_cmu.o
 .text.__NVIC_GetPriority
                0x00001f44       0x24 ./gecko_sdk_4.5.0/platform/emlib/src/em_core.o
 .text.CORE_NvicIRQDisabled
                0x00001f68       0x34 ./gecko_sdk_4.5.0/platform/emlib/src/em_core.o
                0x00001f68                CORE_NvicIRQDisabled
 .text.CORE_IrqIsBlocked
                0x00001f9c       0x6c ./gecko_sdk_4.5.0/platform/emlib/src/em_core.o
                0x00001f9c                CORE_IrqIsBlocked
 .text.dpllState
                0x00002008       0xa4 ./gecko_sdk_4.5.0/platform/emlib/src/em_emu.o
 .text.EMU_EM23Init
                0x000020ac       0x18 ./gecko_sdk_4.5.0/platform/emlib/src/em_emu.o
                0x000020ac                EMU_EM23Init
 .text.EMU_EnterEM2
                0x000020c4       0x5c ./gecko_sdk_4.5.0/platform/emlib/src/em_emu.o
                0x000020c4                EMU_EnterEM2
 .text.EMU_EnterEM3
                0x00002120       0x54 ./gecko_sdk_4.5.0/platform/emlib/src/em_emu.o
                0x00002120                EMU_EnterEM3
 .text.EMU_EM4Init
                0x00002174       0x14 ./gecko_sdk_4.5.0/platform/emlib/src/em_emu.o
                0x00002174                EMU_EM4Init
 .text.EMU_VScaleEM01
                0x00002188       0xa8 ./gecko_sdk_4.5.0/platform/emlib/src/em_emu.o
                0x00002188                EMU_VScaleEM01
 .text.EMU_VScaleEM01ByClock
                0x00002230       0x30 ./gecko_sdk_4.5.0/platform/emlib/src/em_emu.o
                0x00002230                EMU_VScaleEM01ByClock
 .text.EMU_EM01Init
                0x00002260       0x14 ./gecko_sdk_4.5.0/platform/emlib/src/em_emu.o
                0x00002260                EMU_EM01Init
 .text.EMU_DCDCModeSet
                0x00002274       0xb8 ./gecko_sdk_4.5.0/platform/emlib/src/em_emu.o
                0x00002274                EMU_DCDCModeSet
 .text.EMU_DCDCInit
                0x0000232c       0x74 ./gecko_sdk_4.5.0/platform/emlib/src/em_emu.o
                0x0000232c                EMU_DCDCInit
 .text.EUSART_Reset
                0x000023a0       0x34 ./gecko_sdk_4.5.0/platform/emlib/src/em_eusart.o
                0x000023a0                EUSART_Reset
 .text.EUSART_Enable
                0x000023d4       0x60 ./gecko_sdk_4.5.0/platform/emlib/src/em_eusart.o
                0x000023d4                EUSART_Enable
 .text.EUSART_BaudrateSet
                0x00002434      0x128 ./gecko_sdk_4.5.0/platform/emlib/src/em_eusart.o
                0x00002434                EUSART_BaudrateSet
 .text.EUSART_AsyncInitCommon.constprop.0
                0x0000255c      0x178 ./gecko_sdk_4.5.0/platform/emlib/src/em_eusart.o
 .text.EUSART_UartInitLf
                0x000026d4       0xb4 ./gecko_sdk_4.5.0/platform/emlib/src/em_eusart.o
                0x000026d4                EUSART_UartInitLf
 .text.EUSART_UartInitHf
                0x00002788       0x50 ./gecko_sdk_4.5.0/platform/emlib/src/em_eusart.o
                0x00002788                EUSART_UartInitHf
 .text.EUSART_BaudrateGet
                0x000027d8       0xb4 ./gecko_sdk_4.5.0/platform/emlib/src/em_eusart.o
                0x000027d8                EUSART_BaudrateGet
 .text.BUS_RegBitWrite
                0x0000288c       0x2c ./gecko_sdk_4.5.0/platform/emlib/src/em_gpio.o
 .text.GPIO_PinOutSet
                0x000028b8       0x40 ./gecko_sdk_4.5.0/platform/emlib/src/em_gpio.o
 .text.GPIO_PinOutClear
                0x000028f8       0x40 ./gecko_sdk_4.5.0/platform/emlib/src/em_gpio.o
 .text.GPIO_ExtIntConfig
                0x00002938       0xe0 ./gecko_sdk_4.5.0/platform/emlib/src/em_gpio.o
                0x00002938                GPIO_ExtIntConfig
 .text.GPIO_PinModeSet
                0x00002a18       0x90 ./gecko_sdk_4.5.0/platform/emlib/src/em_gpio.o
                0x00002a18                GPIO_PinModeSet
 .text.GPIO_EM4EnablePinWakeup
                0x00002aa8       0x68 ./gecko_sdk_4.5.0/platform/emlib/src/em_gpio.o
                0x00002aa8                GPIO_EM4EnablePinWakeup
 .text.GPIO_EM4WUExtIntConfig
                0x00002b10       0x60 ./gecko_sdk_4.5.0/platform/emlib/src/em_gpio.o
                0x00002b10                GPIO_EM4WUExtIntConfig
 .text.LDMA_EnableChannelRequest
                0x00002b70       0x40 ./gecko_sdk_4.5.0/platform/emlib/src/em_ldma.o
                0x00002b70                LDMA_EnableChannelRequest
 .text.LDMA_Init
                0x00002bb0       0x94 ./gecko_sdk_4.5.0/platform/emlib/src/em_ldma.o
                0x00002bb0                LDMA_Init
 .text.RTCC_ChannelInit
                0x00002c44       0x48 ./gecko_sdk_4.5.0/platform/emlib/src/em_rtcc.o
                0x00002c44                RTCC_ChannelInit
 .text.RTCC_Enable
                0x00002c8c       0x54 ./gecko_sdk_4.5.0/platform/emlib/src/em_rtcc.o
                0x00002c8c                RTCC_Enable
 .text.RTCC_Init
                0x00002ce0       0x48 ./gecko_sdk_4.5.0/platform/emlib/src/em_rtcc.o
                0x00002ce0                RTCC_Init
 .text.SYSTEM_GetProdRev
                0x00002d28       0x10 ./gecko_sdk_4.5.0/platform/emlib/src/em_system.o
                0x00002d28                SYSTEM_GetProdRev
 .text.sl_device_init_dcdc
                0x00002d38       0x20 ./gecko_sdk_4.5.0/platform/service/device_init/src/sl_device_init_dcdc_s2.o
                0x00002d38                sl_device_init_dcdc
 .text.sl_device_init_emu
                0x00002d58       0x24 ./gecko_sdk_4.5.0/platform/service/device_init/src/sl_device_init_emu_s2.o
                0x00002d58                sl_device_init_emu
 .text.sl_device_init_hfxo
                0x00002d7c       0x70 ./gecko_sdk_4.5.0/platform/service/device_init/src/sl_device_init_hfxo_s2.o
                0x00002d7c                sl_device_init_hfxo
 .text.sl_device_init_lfxo
                0x00002dec       0x2c ./gecko_sdk_4.5.0/platform/service/device_init/src/sl_device_init_lfxo_s2.o
                0x00002dec                sl_device_init_lfxo
 .text.sl_device_init_nvic
                0x00002e18       0x3c ./gecko_sdk_4.5.0/platform/service/device_init/src/sl_device_init_nvic.o
                0x00002e18                sl_device_init_nvic
 .text.sl_iostream_get_default
                0x00002e54       0x18 ./gecko_sdk_4.5.0/platform/service/iostream/src/sl_iostream.o
                0x00002e54                sl_iostream_get_default
 .text._write   0x00002e6c       0x20 ./gecko_sdk_4.5.0/platform/service/iostream/src/sl_iostream_retarget_stdio.o
                0x00002e6c                _write
 .text.get_lowest_em
                0x00002e8c       0x1c ./gecko_sdk_4.5.0/platform/service/power_manager/src/sl_power_manager.o
 .text.power_manager_notify_em_transition
                0x00002ea8       0x74 ./gecko_sdk_4.5.0/platform/service/power_manager/src/sl_power_manager.o
 .text.clock_restore
                0x00002f1c       0x58 ./gecko_sdk_4.5.0/platform/service/power_manager/src/sl_power_manager.o
 .text.on_clock_wakeup_timeout
                0x00002f74       0x24 ./gecko_sdk_4.5.0/platform/service/power_manager/src/sl_power_manager.o
 .text.update_em1_requirement
                0x00002f98       0x68 ./gecko_sdk_4.5.0/platform/service/power_manager/src/sl_power_manager.o
 .text.sl_power_manager_init
                0x00003000       0x64 ./gecko_sdk_4.5.0/platform/service/power_manager/src/sl_power_manager.o
                0x00003000                sl_power_manager_init
 .text.sli_power_manager_update_em_requirement
                0x00003064      0x104 ./gecko_sdk_4.5.0/platform/service/power_manager/src/sl_power_manager.o
                0x00003064                sli_power_manager_update_em_requirement
 .text.sli_power_manager_get_restore_delay
                0x00003168       0x34 ./gecko_sdk_4.5.0/platform/service/power_manager/src/sl_power_manager.o
                0x00003168                sli_power_manager_get_restore_delay
 .text.sli_power_manager_convert_delay_us_to_tick
                0x0000319c       0x20 ./gecko_sdk_4.5.0/platform/service/power_manager/src/sl_power_manager.o
                0x0000319c                sli_power_manager_convert_delay_us_to_tick
 .text.sl_power_manager_sleep
                0x000031bc      0x268 ./gecko_sdk_4.5.0/platform/service/power_manager/src/sl_power_manager.o
                0x000031bc                sl_power_manager_sleep
 .text.sl_power_manager_is_latest_wakeup_internal
                0x00003424       0x20 ./gecko_sdk_4.5.0/platform/service/power_manager/src/sl_power_manager.o
                0x00003424                sl_power_manager_is_latest_wakeup_internal
 .text.sli_power_manager_em23_voltage_scaling_enable_fast_wakeup
                0x00003444       0x50 ./gecko_sdk_4.5.0/platform/service/power_manager/src/sl_power_manager_hal_s2.o
                0x00003444                sli_power_manager_em23_voltage_scaling_enable_fast_wakeup
 .text.sli_power_manager_init_hardware
                0x00003494      0x158 ./gecko_sdk_4.5.0/platform/service/power_manager/src/sl_power_manager_hal_s2.o
                0x00003494                sli_power_manager_init_hardware
 .text.sli_power_manager_save_states
                0x000035ec       0x2c ./gecko_sdk_4.5.0/platform/service/power_manager/src/sl_power_manager_hal_s2.o
                0x000035ec                sli_power_manager_save_states
 .text.EMU_EM23PresleepHook
                0x00003618       0x50 ./gecko_sdk_4.5.0/platform/service/power_manager/src/sl_power_manager_hal_s2.o
                0x00003618                EMU_EM23PresleepHook
 .text.EMU_EM23PostsleepHook
                0x00003668       0x70 ./gecko_sdk_4.5.0/platform/service/power_manager/src/sl_power_manager_hal_s2.o
                0x00003668                EMU_EM23PostsleepHook
 .text.sli_power_manager_handle_pre_deepsleep_operations
                0x000036d8        0xc ./gecko_sdk_4.5.0/platform/service/power_manager/src/sl_power_manager_hal_s2.o
                0x000036d8                sli_power_manager_handle_pre_deepsleep_operations
 .text.sli_power_manager_restore_high_freq_accuracy_clk
                0x000036e4       0xa4 ./gecko_sdk_4.5.0/platform/service/power_manager/src/sl_power_manager_hal_s2.o
                0x000036e4                sli_power_manager_restore_high_freq_accuracy_clk
 .text.sli_power_manager_restore_states
                0x00003788       0x68 ./gecko_sdk_4.5.0/platform/service/power_manager/src/sl_power_manager_hal_s2.o
                0x00003788                sli_power_manager_restore_states
 .text.sli_power_manager_apply_em
                0x000037f0       0x38 ./gecko_sdk_4.5.0/platform/service/power_manager/src/sl_power_manager_hal_s2.o
                0x000037f0                sli_power_manager_apply_em
 .text.sli_power_manager_get_wakeup_process_time_overhead
                0x00003828       0x24 ./gecko_sdk_4.5.0/platform/service/power_manager/src/sl_power_manager_hal_s2.o
                0x00003828                sli_power_manager_get_wakeup_process_time_overhead
 .text.sli_power_manager_is_high_freq_accuracy_clk_used
                0x0000384c        0xc ./gecko_sdk_4.5.0/platform/service/power_manager/src/sl_power_manager_hal_s2.o
                0x0000384c                sli_power_manager_is_high_freq_accuracy_clk_used
 .text.update_delta_list
                0x00003858       0x34 ./gecko_sdk_4.5.0/platform/service/sleeptimer/src/sl_sleeptimer.o
 .text.delta_list_insert_timer
                0x0000388c       0x58 ./gecko_sdk_4.5.0/platform/service/sleeptimer/src/sl_sleeptimer.o
 .text.set_comparator_for_next_timer
                0x000038e4       0x5c ./gecko_sdk_4.5.0/platform/service/sleeptimer/src/sl_sleeptimer.o
 .text.create_timer
                0x00003940       0x88 ./gecko_sdk_4.5.0/platform/service/sleeptimer/src/sl_sleeptimer.o
 .text.delta_list_remove_timer
                0x000039c8       0x38 ./gecko_sdk_4.5.0/platform/service/sleeptimer/src/sl_sleeptimer.o
 .text.sl_sleeptimer_init
                0x00003a00       0x74 ./gecko_sdk_4.5.0/platform/service/sleeptimer/src/sl_sleeptimer.o
                0x00003a00                sl_sleeptimer_init
 .text.sl_sleeptimer_stop_timer
                0x00003a74       0x60 ./gecko_sdk_4.5.0/platform/service/sleeptimer/src/sl_sleeptimer.o
                0x00003a74                sl_sleeptimer_stop_timer
 .text.sl_sleeptimer_is_timer_running
                0x00003ad4       0x3c ./gecko_sdk_4.5.0/platform/service/sleeptimer/src/sl_sleeptimer.o
                0x00003ad4                sl_sleeptimer_is_timer_running
 .text.sl_sleeptimer_get_remaining_time_of_first_timer
                0x00003b10       0x60 ./gecko_sdk_4.5.0/platform/service/sleeptimer/src/sl_sleeptimer.o
                0x00003b10                sl_sleeptimer_get_remaining_time_of_first_timer
 .text.sli_sleeptimer_is_power_manager_timer_next_to_expire
                0x00003b70       0x28 ./gecko_sdk_4.5.0/platform/service/sleeptimer/src/sl_sleeptimer.o
                0x00003b70                sli_sleeptimer_is_power_manager_timer_next_to_expire
 .text.sl_sleeptimer_get_timer_frequency
                0x00003b98        0xc ./gecko_sdk_4.5.0/platform/service/sleeptimer/src/sl_sleeptimer.o
                0x00003b98                sl_sleeptimer_get_timer_frequency
 .text.sl_sleeptimer_ms_to_tick
                0x00003ba4       0x24 ./gecko_sdk_4.5.0/platform/service/sleeptimer/src/sl_sleeptimer.o
                0x00003ba4                sl_sleeptimer_ms_to_tick
 .text.sl_sleeptimer_delay_millisecond
                0x00003bc8       0x38 ./gecko_sdk_4.5.0/platform/service/sleeptimer/src/sl_sleeptimer.o
                0x00003bc8                sl_sleeptimer_delay_millisecond
 .text.process_timer_irq
                0x00003c00      0x154 ./gecko_sdk_4.5.0/platform/service/sleeptimer/src/sl_sleeptimer.o
                0x00003c00                process_timer_irq
 .text.sl_sleeptimer_is_power_manager_early_restore_timer_latest_to_expire
                0x00003d54       0x18 ./gecko_sdk_4.5.0/platform/service/sleeptimer/src/sl_sleeptimer.o
                0x00003d54                sl_sleeptimer_is_power_manager_early_restore_timer_latest_to_expire
 .text.sleeptimer_hal_init_timer
                0x00003d6c       0x7c ./gecko_sdk_4.5.0/platform/service/sleeptimer/src/sl_sleeptimer_hal_rtcc.o
                0x00003d6c                sleeptimer_hal_init_timer
 .text.sleeptimer_hal_set_compare
                0x00003de8       0x64 ./gecko_sdk_4.5.0/platform/service/sleeptimer/src/sl_sleeptimer_hal_rtcc.o
                0x00003de8                sleeptimer_hal_set_compare
 .text.sleeptimer_hal_enable_int
                0x00003e4c       0x18 ./gecko_sdk_4.5.0/platform/service/sleeptimer/src/sl_sleeptimer_hal_rtcc.o
                0x00003e4c                sleeptimer_hal_enable_int
 .text.sleeptimer_hal_disable_int
                0x00003e64       0x2c ./gecko_sdk_4.5.0/platform/service/sleeptimer/src/sl_sleeptimer_hal_rtcc.o
                0x00003e64                sleeptimer_hal_disable_int
 .text.sleeptimer_hal_set_int
                0x00003e90       0x10 ./gecko_sdk_4.5.0/platform/service/sleeptimer/src/sl_sleeptimer_hal_rtcc.o
                0x00003e90                sleeptimer_hal_set_int
 .text.RTCC_IRQHandler
                0x00003ea0       0x34 ./gecko_sdk_4.5.0/platform/service/sleeptimer/src/sl_sleeptimer_hal_rtcc.o
                0x00003ea0                RTCC_IRQHandler
 .text.sli_sleeptimer_set_pm_em_requirement
                0x00003ed4       0x30 ./gecko_sdk_4.5.0/platform/service/sleeptimer/src/sl_sleeptimer_hal_rtcc.o
                0x00003ed4                sli_sleeptimer_set_pm_em_requirement
 .text          0x00003f04       0x30 c:/siliconlabs/simplicitystudio/v5/developer/toolchains/gnu_arm/12.2.rel1_2023.7/bin/../lib/gcc/arm-none-eabi/12.2.1/thumb/v8-m.main+fp/hard\libgcc.a(_aeabi_uldivmod.o)
                0x00003f04                __aeabi_uldivmod
 .text.__udivmoddi4
                0x00003f34      0x2ec c:/siliconlabs/simplicitystudio/v5/developer/toolchains/gnu_arm/12.2.rel1_2023.7/bin/../lib/gcc/arm-none-eabi/12.2.1/thumb/v8-m.main+fp/hard\libgcc.a(_udivmoddi4.o)
                0x00003f34                __udivmoddi4
 .text          0x00004220        0x4 c:/siliconlabs/simplicitystudio/v5/developer/toolchains/gnu_arm/12.2.rel1_2023.7/bin/../lib/gcc/arm-none-eabi/12.2.1/thumb/v8-m.main+fp/hard\libgcc.a(_dvmd_tls.o)
                0x00004220                __aeabi_idiv0
                0x00004220                __aeabi_ldiv0
 .text.exit     0x00004224       0x24 c:/siliconlabs/simplicitystudio/v5/developer/toolchains/gnu_arm/12.2.rel1_2023.7/bin/../lib/gcc/arm-none-eabi/12.2.1/thumb/v8-m.main+fp/hard\libc_nano.a(libc_a-exit.o)
                0x00004224                exit
 .text.std      0x00004248       0x6c c:/siliconlabs/simplicitystudio/v5/developer/toolchains/gnu_arm/12.2.rel1_2023.7/bin/../lib/gcc/arm-none-eabi/12.2.1/thumb/v8-m.main+fp/hard\libc_nano.a(libc_a-findfp.o)
 .text.stdio_exit_handler
                0x000042b4       0x18 c:/siliconlabs/simplicitystudio/v5/developer/toolchains/gnu_arm/12.2.rel1_2023.7/bin/../lib/gcc/arm-none-eabi/12.2.1/thumb/v8-m.main+fp/hard\libc_nano.a(libc_a-findfp.o)
 .text.cleanup_stdio
                0x000042cc       0x40 c:/siliconlabs/simplicitystudio/v5/developer/toolchains/gnu_arm/12.2.rel1_2023.7/bin/../lib/gcc/arm-none-eabi/12.2.1/thumb/v8-m.main+fp/hard\libc_nano.a(libc_a-findfp.o)
 .text.global_stdio_init.part.0
                0x0000430c       0x3c c:/siliconlabs/simplicitystudio/v5/developer/toolchains/gnu_arm/12.2.rel1_2023.7/bin/../lib/gcc/arm-none-eabi/12.2.1/thumb/v8-m.main+fp/hard\libc_nano.a(libc_a-findfp.o)
 .text.__sfp_lock_acquire
                0x00004348        0xc c:/siliconlabs/simplicitystudio/v5/developer/toolchains/gnu_arm/12.2.rel1_2023.7/bin/../lib/gcc/arm-none-eabi/12.2.1/thumb/v8-m.main+fp/hard\libc_nano.a(libc_a-findfp.o)
                0x00004348                __sfp_lock_acquire
 .text.__sfp_lock_release
                0x00004354        0xc c:/siliconlabs/simplicitystudio/v5/developer/toolchains/gnu_arm/12.2.rel1_2023.7/bin/../lib/gcc/arm-none-eabi/12.2.1/thumb/v8-m.main+fp/hard\libc_nano.a(libc_a-findfp.o)
                0x00004354                __sfp_lock_release
 .text.__sinit  0x00004360       0x30 c:/siliconlabs/simplicitystudio/v5/developer/toolchains/gnu_arm/12.2.rel1_2023.7/bin/../lib/gcc/arm-none-eabi/12.2.1/thumb/v8-m.main+fp/hard\libc_nano.a(libc_a-findfp.o)
                0x00004360                __sinit
 .text.printf   0x00004390       0x24 c:/siliconlabs/simplicitystudio/v5/developer/toolchains/gnu_arm/12.2.rel1_2023.7/bin/../lib/gcc/arm-none-eabi/12.2.1/thumb/v8-m.main+fp/hard\libc_nano.a(libc_a-printf.o)
                0x00004390                iprintf
                0x00004390                printf
 .text._close_r
                0x000043b4       0x20 c:/siliconlabs/simplicitystudio/v5/developer/toolchains/gnu_arm/12.2.rel1_2023.7/bin/../lib/gcc/arm-none-eabi/12.2.1/thumb/v8-m.main+fp/hard\libc_nano.a(libc_a-closer.o)
                0x000043b4                _close_r
 .text._lseek_r
                0x000043d4       0x24 c:/siliconlabs/simplicitystudio/v5/developer/toolchains/gnu_arm/12.2.rel1_2023.7/bin/../lib/gcc/arm-none-eabi/12.2.1/thumb/v8-m.main+fp/hard\libc_nano.a(libc_a-lseekr.o)
                0x000043d4                _lseek_r
 .text._read_r  0x000043f8       0x24 c:/siliconlabs/simplicitystudio/v5/developer/toolchains/gnu_arm/12.2.rel1_2023.7/bin/../lib/gcc/arm-none-eabi/12.2.1/thumb/v8-m.main+fp/hard\libc_nano.a(libc_a-readr.o)
                0x000043f8                _read_r
 .text._write_r
                0x0000441c       0x24 c:/siliconlabs/simplicitystudio/v5/developer/toolchains/gnu_arm/12.2.rel1_2023.7/bin/../lib/gcc/arm-none-eabi/12.2.1/thumb/v8-m.main+fp/hard\libc_nano.a(libc_a-writer.o)
                0x0000441c                _write_r
 .text.__libc_init_array
                0x00004440       0x48 c:/siliconlabs/simplicitystudio/v5/developer/toolchains/gnu_arm/12.2.rel1_2023.7/bin/../lib/gcc/arm-none-eabi/12.2.1/thumb/v8-m.main+fp/hard\libc_nano.a(libc_a-init.o)
                0x00004440                __libc_init_array
 .text._free_r  0x00004488       0x94 c:/siliconlabs/simplicitystudio/v5/developer/toolchains/gnu_arm/12.2.rel1_2023.7/bin/../lib/gcc/arm-none-eabi/12.2.1/thumb/v8-m.main+fp/hard\libc_nano.a(libc_a-freer.o)
                0x00004488                _free_r
 .text.sbrk_aligned
                0x0000451c       0x44 c:/siliconlabs/simplicitystudio/v5/developer/toolchains/gnu_arm/12.2.rel1_2023.7/bin/../lib/gcc/arm-none-eabi/12.2.1/thumb/v8-m.main+fp/hard\libc_nano.a(libc_a-mallocr.o)
 .text._malloc_r
                0x00004560       0xf0 c:/siliconlabs/simplicitystudio/v5/developer/toolchains/gnu_arm/12.2.rel1_2023.7/bin/../lib/gcc/arm-none-eabi/12.2.1/thumb/v8-m.main+fp/hard\libc_nano.a(libc_a-mallocr.o)
                0x00004560                _malloc_r
 .text.__malloc_lock
                0x00004650        0xc c:/siliconlabs/simplicitystudio/v5/developer/toolchains/gnu_arm/12.2.rel1_2023.7/bin/../lib/gcc/arm-none-eabi/12.2.1/thumb/v8-m.main+fp/hard\libc_nano.a(libc_a-mlock.o)
                0x00004650                __malloc_lock
 .text.__malloc_unlock
                0x0000465c        0xc c:/siliconlabs/simplicitystudio/v5/developer/toolchains/gnu_arm/12.2.rel1_2023.7/bin/../lib/gcc/arm-none-eabi/12.2.1/thumb/v8-m.main+fp/hard\libc_nano.a(libc_a-mlock.o)
                0x0000465c                __malloc_unlock
 .text._vfprintf_r
                0x00004668      0x230 c:/siliconlabs/simplicitystudio/v5/developer/toolchains/gnu_arm/12.2.rel1_2023.7/bin/../lib/gcc/arm-none-eabi/12.2.1/thumb/v8-m.main+fp/hard\libc_nano.a(libc_a-nano-vfprintf.o)
                0x00004668                _vfprintf_r
                0x00004668                _vfiprintf_r
 .text._printf_i
                0x00004898      0x258 c:/siliconlabs/simplicitystudio/v5/developer/toolchains/gnu_arm/12.2.rel1_2023.7/bin/../lib/gcc/arm-none-eabi/12.2.1/thumb/v8-m.main+fp/hard\libc_nano.a(libc_a-nano-vfprintf_i.o)
                0x00004898                _printf_i
 .text.__swsetup_r
                0x00004af0       0xac c:/siliconlabs/simplicitystudio/v5/developer/toolchains/gnu_arm/12.2.rel1_2023.7/bin/../lib/gcc/arm-none-eabi/12.2.1/thumb/v8-m.main+fp/hard\libc_nano.a(libc_a-wsetup.o)
                0x00004af0                __swsetup_r
 .text._sbrk_r  0x00004b9c       0x20 c:/siliconlabs/simplicitystudio/v5/developer/toolchains/gnu_arm/12.2.rel1_2023.7/bin/../lib/gcc/arm-none-eabi/12.2.1/thumb/v8-m.main+fp/hard\libc_nano.a(libc_a-sbrkr.o)
                0x00004b9c                _sbrk_r
 .text._fstat_r
                0x00004bbc       0x24 c:/siliconlabs/simplicitystudio/v5/developer/toolchains/gnu_arm/12.2.rel1_2023.7/bin/../lib/gcc/arm-none-eabi/12.2.1/thumb/v8-m.main+fp/hard\libc_nano.a(libc_a-fstatr.o)
                0x00004bbc                _fstat_r
 .text._isatty_r
                0x00004be0       0x20 c:/siliconlabs/simplicitystudio/v5/developer/toolchains/gnu_arm/12.2.rel1_2023.7/bin/../lib/gcc/arm-none-eabi/12.2.1/thumb/v8-m.main+fp/hard\libc_nano.a(libc_a-isattyr.o)
                0x00004be0                _isatty_r
 .text.startup.main
                0x00004c00       0x18 ./main.o
                0x00004c00                main
 .text.sl_board_default_init
                0x00004c18        0x4 ./autogen/sl_board_default_init.o
                0x00004c18                sl_board_default_init
 .text.sl_driver_init
                0x00004c1c       0x1e ./autogen/sl_event_handler.o
                0x00004c1c                sl_driver_init
 .text.sl_service_init
                0x00004c3a        0xe ./autogen/sl_event_handler.o
                0x00004c3a                sl_service_init
 .text.sl_stack_init
                0x00004c48        0x2 ./autogen/sl_event_handler.o
                0x00004c48                sl_stack_init
 .text.sl_internal_app_init
                0x00004c4a        0x4 ./autogen/sl_event_handler.o
                0x00004c4a                sl_internal_app_init
 .text.sl_platform_process_action
                0x00004c4e        0x2 ./autogen/sl_event_handler.o
                0x00004c4e                sl_platform_process_action
 .text.sl_service_process_action
                0x00004c50        0x4 ./autogen/sl_event_handler.o
                0x00004c50                sl_service_process_action
 .text.sl_stack_process_action
                0x00004c54        0x2 ./autogen/sl_event_handler.o
                0x00004c54                sl_stack_process_action
 .text.sl_internal_app_process_action
                0x00004c56        0x2 ./autogen/sl_event_handler.o
                0x00004c56                sl_internal_app_process_action
 .text.app_is_ok_to_sleep
                0x00004c58        0x4 ./autogen/sl_power_manager_handler.o
                0x00004c58                app_is_ok_to_sleep
 .text.app_sleep_on_isr_exit
                0x00004c5c        0x4 ./autogen/sl_power_manager_handler.o
                0x00004c5c                app_sleep_on_isr_exit
 .text.sl_power_manager_is_ok_to_sleep
                0x00004c60       0x14 ./autogen/sl_power_manager_handler.o
                0x00004c60                sl_power_manager_is_ok_to_sleep
 .text.sl_power_manager_sleep_on_isr_exit
                0x00004c74       0x4c ./autogen/sl_power_manager_handler.o
                0x00004c74                sl_power_manager_sleep_on_isr_exit
 .text.app_button_press_cb
                0x00004cc0        0x2 ./gecko_sdk_4.5.0/app/common/util/app_button_press/app_button_press.o
                0x00004cc0                app_button_press_cb
 .text.sl_board_configure_vcom
                0x00004cc2        0x4 ./gecko_sdk_4.5.0/hardware/board/src/sl_board_control_gpio.o
                0x00004cc2                sl_board_configure_vcom
 .text.sl_board_disable_vcom
                0x00004cc6        0x4 ./gecko_sdk_4.5.0/hardware/board/src/sl_board_control_gpio.o
                0x00004cc6                sl_board_disable_vcom
 .text.sl_board_init
                0x00004cca       0x12 ./gecko_sdk_4.5.0/hardware/board/src/sl_board_init.o
                0x00004cca                sl_board_init
 .text.sl_board_preinit
                0x00004cdc        0x8 ./gecko_sdk_4.5.0/hardware/board/src/sl_board_init.o
                0x00004cdc                sl_board_preinit
 .text.sli_cos_swo_itm_8_write.constprop.0.isra.0
                0x00004ce4       0x78 ./gecko_sdk_4.5.0/hardware/driver/configuration_over_swo/src/sl_cos.o
 .text.Default_Handler
                0x00004d5c        0x2 ./gecko_sdk_4.5.0/platform/Device/SiliconLabs/EFR32BG22/Source/startup_efr32bg22.o
                0x00004d5c                ULFRCO_IRQHandler
                0x00004d5c                SW2_IRQHandler
                0x00004d5c                TIMER2_IRQHandler
                0x00004d5c                DebugMon_Handler
                0x00004d5c                PKE_IRQHandler
                0x00004d5c                USART0_TX_IRQHandler
                0x00004d5c                PRORTC_IRQHandler
                0x00004d5c                IADC_IRQHandler
                0x00004d5c                I2C0_IRQHandler
                0x00004d5c                LFXO_IRQHandler
                0x00004d5c                CRYPTOACC_IRQHandler
                0x00004d5c                HardFault_Handler
                0x00004d5c                SMU_SECURE_IRQHandler
                0x00004d5c                SysTick_Handler
                0x00004d5c                USART1_RX_IRQHandler
                0x00004d5c                EMUEFP_IRQHandler
                0x00004d5c                PendSV_Handler
                0x00004d5c                NMI_Handler
                0x00004d5c                SYNTH_IRQHandler
                0x00004d5c                HFXO0_IRQHandler
                0x00004d5c                I2C1_IRQHandler
                0x00004d5c                PDM_IRQHandler
                0x00004d5c                WDOG0_IRQHandler
                0x00004d5c                TIMER3_IRQHandler
                0x00004d5c                SYSCFG_IRQHandler
                0x00004d5c                EMUSE_IRQHandler
                0x00004d5c                EMUDG_IRQHandler
                0x00004d5c                USART1_TX_IRQHandler
                0x00004d5c                MSC_IRQHandler
                0x00004d5c                DPLL0_IRQHandler
                0x00004d5c                UsageFault_Handler
                0x00004d5c                M33CTI1_IRQHandler
                0x00004d5c                TIMER4_IRQHandler
                0x00004d5c                SW0_IRQHandler
                0x00004d5c                TIMER0_IRQHandler
                0x00004d5c                LETIMER0_IRQHandler
                0x00004d5c                TIMER1_IRQHandler
                0x00004d5c                HFRCO0_IRQHandler
                0x00004d5c                RFSENSE_IRQHandler
                0x00004d5c                SecureFault_Handler
                0x00004d5c                BUFC_IRQHandler
                0x00004d5c                DCDC_IRQHandler
                0x00004d5c                MODEM_IRQHandler
                0x00004d5c                Default_Handler
                0x00004d5c                RAC_SEQ_IRQHandler
                0x00004d5c                FRC_PRI_IRQHandler
                0x00004d5c                EMU_IRQHandler
                0x00004d5c                SW3_IRQHandler
                0x00004d5c                KERNEL0_IRQHandler
                0x00004d5c                FRC_IRQHandler
                0x00004d5c                KERNEL1_IRQHandler
                0x00004d5c                AGC_IRQHandler
                0x00004d5c                sl_app_properties
                0x00004d5c                BURTC_IRQHandler
                0x00004d5c                LFRCO_IRQHandler
                0x00004d5c                USART0_RX_IRQHandler
                0x00004d5c                MemManage_Handler
                0x00004d5c                RDMAILBOX_IRQHandler
                0x00004d5c                SVC_Handler
                0x00004d5c                SMU_S_PRIVILEGED_IRQHandler
                0x00004d5c                SW1_IRQHandler
                0x00004d5c                CMU_IRQHandler
                0x00004d5c                RAC_RSM_IRQHandler
                0x00004d5c                EUART0_TX_IRQHandler
                0x00004d5c                EUART0_RX_IRQHandler
                0x00004d5c                AES_IRQHandler
                0x00004d5c                M33CTI0_IRQHandler
                0x00004d5c                ICACHE0_IRQHandler
                0x00004d5c                SMU_NS_PRIVILEGED_IRQHandler
                0x00004d5c                PROTIMER_IRQHandler
                0x00004d5c                BusFault_Handler
                0x00004d5c                TRNG_IRQHandler
 .text.FlashToRamCopy
                0x00004d5e       0x16 ./gecko_sdk_4.5.0/platform/Device/SiliconLabs/EFR32BG22/Source/system_efr32bg22.o
                0x00004d5e                FlashToRamCopy
 .text.SystemCLKIN0Get
                0x00004d74        0x4 ./gecko_sdk_4.5.0/platform/Device/SiliconLabs/EFR32BG22/Source/system_efr32bg22.o
                0x00004d74                SystemCLKIN0Get
 .text.SystemLFRCOClockGet
                0x00004d78        0x6 ./gecko_sdk_4.5.0/platform/Device/SiliconLabs/EFR32BG22/Source/system_efr32bg22.o
                0x00004d78                SystemLFRCOClockGet
 .text.SystemULFRCOClockGet
                0x00004d7e        0x6 ./gecko_sdk_4.5.0/platform/Device/SiliconLabs/EFR32BG22/Source/system_efr32bg22.o
                0x00004d7e                SystemULFRCOClockGet
 .text.assertEFM
                0x00004d84        0x2 ./gecko_sdk_4.5.0/platform/common/src/sl_assert.o
                0x00004d84                assertEFM
 .text.sl_slist_init
                0x00004d86        0x6 ./gecko_sdk_4.5.0/platform/common/src/sl_slist.o
                0x00004d86                sl_slist_init
 .text.sl_button_init
                0x00004d8c        0xa ./gecko_sdk_4.5.0/platform/driver/button/src/sl_button.o
                0x00004d8c                sl_button_init
 .text.sl_button_get_state
                0x00004d96        0xa ./gecko_sdk_4.5.0/platform/driver/button/src/sl_button.o
                0x00004d96                sl_button_get_state
 .text.sli_simple_button_on_change
                0x00004da0       0x28 ./gecko_sdk_4.5.0/platform/driver/button/src/sl_simple_button.o
 .text.sl_simple_button_get_state
                0x00004dc8        0x6 ./gecko_sdk_4.5.0/platform/driver/button/src/sl_simple_button.o
                0x00004dc8                sl_simple_button_get_state
 .text.sl_simple_button_poll_step
                0x00004dce       0x52 ./gecko_sdk_4.5.0/platform/driver/button/src/sl_simple_button.o
                0x00004dce                sl_simple_button_poll_step
 .text.sl_simple_button_enable
                0x00004e20       0x12 ./gecko_sdk_4.5.0/platform/driver/button/src/sl_simple_button.o
                0x00004e20                sl_simple_button_enable
 .text.sl_simple_button_disable
                0x00004e32       0x30 ./gecko_sdk_4.5.0/platform/driver/button/src/sl_simple_button.o
                0x00004e32                sl_simple_button_disable
 .text.sl_debug_swo_enable_itm
                0x00004e62       0x16 ./gecko_sdk_4.5.0/platform/driver/debug/src/sl_debug_swo.o
                0x00004e62                sl_debug_swo_enable_itm
 .text.sl_debug_swo_disable_itm
                0x00004e78       0x18 ./gecko_sdk_4.5.0/platform/driver/debug/src/sl_debug_swo.o
                0x00004e78                sl_debug_swo_disable_itm
 .text.sl_led_init
                0x00004e90        0x6 ./gecko_sdk_4.5.0/platform/driver/leddrv/src/sl_led.o
                0x00004e90                sl_led_init
 .text.sl_simple_led_init
                0x00004e96       0x22 ./gecko_sdk_4.5.0/platform/driver/leddrv/src/sl_simple_led.o
                0x00004e96                sl_simple_led_init
 .text.sl_simple_led_turn_on
                0x00004eb8       0x12 ./gecko_sdk_4.5.0/platform/driver/leddrv/src/sl_simple_led.o
                0x00004eb8                sl_simple_led_turn_on
 .text.sl_simple_led_turn_off
                0x00004eca       0x12 ./gecko_sdk_4.5.0/platform/driver/leddrv/src/sl_simple_led.o
                0x00004eca                sl_simple_led_turn_off
 .text.ConfigGpio
                0x00004edc       0xde ./gecko_sdk_4.5.0/platform/emdrv/uartdrv/src/uartdrv.o
 .text.FcApplyState
                0x00004fba       0x5c ./gecko_sdk_4.5.0/platform/emdrv/uartdrv/src/uartdrv.o
 .text.waitStateMax
                0x00005016       0x10 ./gecko_sdk_4.5.0/platform/emlib/src/em_cmu.o
 .text.CMU_UpdateWaitStates
                0x00005026        0xc ./gecko_sdk_4.5.0/platform/emlib/src/em_cmu.o
                0x00005026                CMU_UpdateWaitStates
 .text.pclkDivMax
                0x00005032        0xa ./gecko_sdk_4.5.0/platform/emlib/src/em_cmu.o
 .text.sli_em_cmu_SYSCLKInitPostClockSelect
                0x0000503c       0x2a ./gecko_sdk_4.5.0/platform/emlib/src/em_cmu.o
                0x0000503c                sli_em_cmu_SYSCLKInitPostClockSelect
 .text.CORE_EnterCritical
                0x00005066        0x8 ./gecko_sdk_4.5.0/platform/emlib/src/em_core.o
                0x00005066                CORE_EnterCritical
 .text.CORE_ExitCritical
                0x0000506e        0x6 ./gecko_sdk_4.5.0/platform/emlib/src/em_core.o
                0x0000506e                CORE_ExitCritical
 .text.CORE_EnterAtomic
                0x00005074        0xc ./gecko_sdk_4.5.0/platform/emlib/src/em_core.o
                0x00005074                CORE_EnterAtomic
 .text.CORE_ExitAtomic
                0x00005080        0x6 ./gecko_sdk_4.5.0/platform/emlib/src/em_core.o
                0x00005080                CORE_ExitAtomic
 .text.EMU_EFPEM23PresleepHook
                0x00005086        0x2 ./gecko_sdk_4.5.0/platform/emlib/src/em_emu.o
                0x00005086                EMU_EFPEM23PresleepHook
 .text.EMU_EFPEM23PostsleepHook
                0x00005088        0x2 ./gecko_sdk_4.5.0/platform/emlib/src/em_emu.o
                0x00005088                EMU_EFPEM23PostsleepHook
 .text.EMU_Save
                0x0000508a        0x6 ./gecko_sdk_4.5.0/platform/emlib/src/em_emu.o
                0x0000508a                EMU_Save
 .text.EMU_Restore
                0x00005090        0x6 ./gecko_sdk_4.5.0/platform/emlib/src/em_emu.o
                0x00005090                EMU_Restore
 .text.EMU_EFPEM01VScale
                0x00005096        0x2 ./gecko_sdk_4.5.0/platform/emlib/src/em_emu.o
                0x00005096                EMU_EFPEM01VScale
 .text.EMU_DCDCUpdatedHook
                0x00005098        0x2 ./gecko_sdk_4.5.0/platform/emlib/src/em_emu.o
                0x00005098                EMU_DCDCUpdatedHook
 .text.eusart_sync
                0x0000509a        0x8 ./gecko_sdk_4.5.0/platform/emlib/src/em_eusart.o
 .text.EUSART_Disable
                0x000050a2       0x3a ./gecko_sdk_4.5.0/platform/emlib/src/em_eusart.o
 .text.EUSART_Tx
                0x000050dc        0xa ./gecko_sdk_4.5.0/platform/emlib/src/em_eusart.o
                0x000050dc                EUSART_Tx
 .text.BUS_RegMaskedWrite
                0x000050e6       0x1e ./gecko_sdk_4.5.0/platform/emlib/src/em_gpio.o
 .text.GPIO_DbgLocationSet
                0x00005104        0x2 ./gecko_sdk_4.5.0/platform/emlib/src/em_gpio.o
                0x00005104                GPIO_DbgLocationSet
 .text.RTCC_SyncWait
                0x00005106       0x10 ./gecko_sdk_4.5.0/platform/emlib/src/em_rtcc.o
 .text.USART_Tx
                0x00005116        0xa ./gecko_sdk_4.5.0/platform/emlib/src/em_usart.o
                0x00005116                USART_Tx
 .text.sl_iostream_write
                0x00005120       0x22 ./gecko_sdk_4.5.0/platform/service/iostream/src/sl_iostream.o
                0x00005120                sl_iostream_write
 .text.sl_iostream_read
                0x00005142       0x30 ./gecko_sdk_4.5.0/platform/service/iostream/src/sl_iostream.o
                0x00005142                sl_iostream_read
 .text._close   0x00005172        0x4 ./gecko_sdk_4.5.0/platform/service/iostream/src/sl_iostream_retarget_stdio.o
                0x00005172                _close
 .text._exit    0x00005176        0x2 ./gecko_sdk_4.5.0/platform/service/iostream/src/sl_iostream_retarget_stdio.o
                0x00005176                _exit
 .text._fstat   0x00005178        0xa ./gecko_sdk_4.5.0/platform/service/iostream/src/sl_iostream_retarget_stdio.o
                0x00005178                _fstat
 .text._isatty  0x00005182        0x4 ./gecko_sdk_4.5.0/platform/service/iostream/src/sl_iostream_retarget_stdio.o
                0x00005182                _isatty
 .text._lseek   0x00005186        0x4 ./gecko_sdk_4.5.0/platform/service/iostream/src/sl_iostream_retarget_stdio.o
                0x00005186                _lseek
 .text._read    0x0000518a       0x1c ./gecko_sdk_4.5.0/platform/service/iostream/src/sl_iostream_retarget_stdio.o
                0x0000518a                _read
 .text.sli_power_manager_initiate_restore
                0x000051a6       0x16 ./gecko_sdk_4.5.0/platform/service/power_manager/src/sl_power_manager.o
                0x000051a6                sli_power_manager_initiate_restore
 .text.sli_power_manager_is_high_freq_accuracy_clk_ready
                0x000051bc        0x4 ./gecko_sdk_4.5.0/platform/service/power_manager/src/sl_power_manager_hal_s2.o
                0x000051bc                sli_power_manager_is_high_freq_accuracy_clk_ready
 .text.sli_power_manager_get_default_high_frequency_minimum_offtime
                0x000051c0        0x8 ./gecko_sdk_4.5.0/platform/service/power_manager/src/sl_power_manager_hal_s2.o
                0x000051c0                sli_power_manager_get_default_high_frequency_minimum_offtime
 .text.sli_power_manager_low_frequency_restore
                0x000051c8        0x2 ./gecko_sdk_4.5.0/platform/service/power_manager/src/sl_power_manager_hal_s2.o
                0x000051c8                sli_power_manager_low_frequency_restore
 .text.delay_callback
                0x000051ca        0x6 ./gecko_sdk_4.5.0/platform/service/sleeptimer/src/sl_sleeptimer.o
 .text.sl_sleeptimer_restart_timer
                0x000051d0       0x3e ./gecko_sdk_4.5.0/platform/service/sleeptimer/src/sl_sleeptimer.o
                0x000051d0                sl_sleeptimer_restart_timer
 .text.sl_sleeptimer_start_timer
                0x0000520e       0x48 ./gecko_sdk_4.5.0/platform/service/sleeptimer/src/sl_sleeptimer.o
                0x0000520e                sl_sleeptimer_start_timer
 .text.sl_sleeptimer_get_tick_count
                0x00005256       0x18 ./gecko_sdk_4.5.0/platform/service/sleeptimer/src/sl_sleeptimer.o
                0x00005256                sl_sleeptimer_get_tick_count
 .text.CMU_PrescToLog2.constprop.0
                0x0000526e        0x4 ./gecko_sdk_4.5.0/platform/service/sleeptimer/src/sl_sleeptimer_hal_rtcc.o
 .text.sleeptimer_hal_get_counter
                0x00005272        0xe ./gecko_sdk_4.5.0/platform/service/sleeptimer/src/sl_sleeptimer_hal_rtcc.o
                0x00005272                sleeptimer_hal_get_counter
 .text.sli_sleeptimer_hal_is_int_status_set
                0x00005280       0x1e ./gecko_sdk_4.5.0/platform/service/sleeptimer/src/sl_sleeptimer_hal_rtcc.o
                0x00005280                sli_sleeptimer_hal_is_int_status_set
 .text.sleeptimer_hal_get_timer_frequency
                0x0000529e       0x14 ./gecko_sdk_4.5.0/platform/service/sleeptimer/src/sl_sleeptimer_hal_rtcc.o
                0x0000529e                sleeptimer_hal_get_timer_frequency
 .text.sl_system_init
                0x000052b2       0x1a ./gecko_sdk_4.5.0/platform/service/system/src/sl_system_init.o
                0x000052b2                sl_system_init
 .text.sl_system_process_action
                0x000052cc       0x16 ./gecko_sdk_4.5.0/platform/service/system/src/sl_system_process_action.o
                0x000052cc                sl_system_process_action
 .text._fwalk_sglue
                0x000052e2       0x3c c:/siliconlabs/simplicitystudio/v5/developer/toolchains/gnu_arm/12.2.rel1_2023.7/bin/../lib/gcc/arm-none-eabi/12.2.1/thumb/v8-m.main+fp/hard\libc_nano.a(libc_a-fwalk.o)
                0x000052e2                _fwalk_sglue
 .text.__sread  0x0000531e       0x22 c:/siliconlabs/simplicitystudio/v5/developer/toolchains/gnu_arm/12.2.rel1_2023.7/bin/../lib/gcc/arm-none-eabi/12.2.1/thumb/v8-m.main+fp/hard\libc_nano.a(libc_a-stdio.o)
                0x0000531e                __sread
 .text.__swrite
                0x00005340       0x38 c:/siliconlabs/simplicitystudio/v5/developer/toolchains/gnu_arm/12.2.rel1_2023.7/bin/../lib/gcc/arm-none-eabi/12.2.1/thumb/v8-m.main+fp/hard\libc_nano.a(libc_a-stdio.o)
                0x00005340                __swrite
 .text.__sseek  0x00005378       0x24 c:/siliconlabs/simplicitystudio/v5/developer/toolchains/gnu_arm/12.2.rel1_2023.7/bin/../lib/gcc/arm-none-eabi/12.2.1/thumb/v8-m.main+fp/hard\libc_nano.a(libc_a-stdio.o)
                0x00005378                __sseek
 .text.__sclose
                0x0000539c        0x8 c:/siliconlabs/simplicitystudio/v5/developer/toolchains/gnu_arm/12.2.rel1_2023.7/bin/../lib/gcc/arm-none-eabi/12.2.1/thumb/v8-m.main+fp/hard\libc_nano.a(libc_a-stdio.o)
                0x0000539c                __sclose
 .text.memset   0x000053a4       0x10 c:/siliconlabs/simplicitystudio/v5/developer/toolchains/gnu_arm/12.2.rel1_2023.7/bin/../lib/gcc/arm-none-eabi/12.2.1/thumb/v8-m.main+fp/hard\libc_nano.a(libc_a-memset.o)
                0x000053a4                memset
 .text.__retarget_lock_init_recursive
                0x000053b4        0x2 c:/siliconlabs/simplicitystudio/v5/developer/toolchains/gnu_arm/12.2.rel1_2023.7/bin/../lib/gcc/arm-none-eabi/12.2.1/thumb/v8-m.main+fp/hard\libc_nano.a(libc_a-lock.o)
                0x000053b4                __retarget_lock_init_recursive
 .text.__retarget_lock_acquire_recursive
                0x000053b6        0x2 c:/siliconlabs/simplicitystudio/v5/developer/toolchains/gnu_arm/12.2.rel1_2023.7/bin/../lib/gcc/arm-none-eabi/12.2.1/thumb/v8-m.main+fp/hard\libc_nano.a(libc_a-lock.o)
                0x000053b6                __retarget_lock_acquire_recursive
 .text.__retarget_lock_release_recursive
                0x000053b8        0x2 c:/siliconlabs/simplicitystudio/v5/developer/toolchains/gnu_arm/12.2.rel1_2023.7/bin/../lib/gcc/arm-none-eabi/12.2.1/thumb/v8-m.main+fp/hard\libc_nano.a(libc_a-lock.o)
                0x000053b8                __retarget_lock_release_recursive
 .text.__sfputc_r
                0x000053ba       0x2e c:/siliconlabs/simplicitystudio/v5/developer/toolchains/gnu_arm/12.2.rel1_2023.7/bin/../lib/gcc/arm-none-eabi/12.2.1/thumb/v8-m.main+fp/hard\libc_nano.a(libc_a-nano-vfprintf.o)
 .text.__sfputs_r
                0x000053e8       0x24 c:/siliconlabs/simplicitystudio/v5/developer/toolchains/gnu_arm/12.2.rel1_2023.7/bin/../lib/gcc/arm-none-eabi/12.2.1/thumb/v8-m.main+fp/hard\libc_nano.a(libc_a-nano-vfprintf.o)
                0x000053e8                __sfputs_r
 .text._printf_common
                0x0000540c       0xe4 c:/siliconlabs/simplicitystudio/v5/developer/toolchains/gnu_arm/12.2.rel1_2023.7/bin/../lib/gcc/arm-none-eabi/12.2.1/thumb/v8-m.main+fp/hard\libc_nano.a(libc_a-nano-vfprintf_i.o)
                0x0000540c                _printf_common
 .text.__sflush_r
                0x000054f0      0x106 c:/siliconlabs/simplicitystudio/v5/developer/toolchains/gnu_arm/12.2.rel1_2023.7/bin/../lib/gcc/arm-none-eabi/12.2.1/thumb/v8-m.main+fp/hard\libc_nano.a(libc_a-fflush.o)
                0x000054f0                __sflush_r
 .text._fflush_r
                0x000055f6       0x50 c:/siliconlabs/simplicitystudio/v5/developer/toolchains/gnu_arm/12.2.rel1_2023.7/bin/../lib/gcc/arm-none-eabi/12.2.1/thumb/v8-m.main+fp/hard\libc_nano.a(libc_a-fflush.o)
                0x000055f6                _fflush_r
 .text.__swbuf_r
                0x00005646       0x7c c:/siliconlabs/simplicitystudio/v5/developer/toolchains/gnu_arm/12.2.rel1_2023.7/bin/../lib/gcc/arm-none-eabi/12.2.1/thumb/v8-m.main+fp/hard\libc_nano.a(libc_a-wbuf.o)
                0x00005646                __swbuf_r
 .text.memchr   0x000056c2       0x1c c:/siliconlabs/simplicitystudio/v5/developer/toolchains/gnu_arm/12.2.rel1_2023.7/bin/../lib/gcc/arm-none-eabi/12.2.1/thumb/v8-m.main+fp/hard\libc_nano.a(libc_a-memchr-stub.o)
                0x000056c2                memchr
 .text.__swhatbuf_r
                0x000056de       0x4a c:/siliconlabs/simplicitystudio/v5/developer/toolchains/gnu_arm/12.2.rel1_2023.7/bin/../lib/gcc/arm-none-eabi/12.2.1/thumb/v8-m.main+fp/hard\libc_nano.a(libc_a-makebuf.o)
                0x000056de                __swhatbuf_r
 .text.__smakebuf_r
                0x00005728       0x78 c:/siliconlabs/simplicitystudio/v5/developer/toolchains/gnu_arm/12.2.rel1_2023.7/bin/../lib/gcc/arm-none-eabi/12.2.1/thumb/v8-m.main+fp/hard\libc_nano.a(libc_a-makebuf.o)
                0x00005728                __smakebuf_r
                0x000057a0                . = ALIGN (0x20)
                0x000057a0                linker_code_end = .
 *(.init)
 .init          0x000057a0        0x4 c:/siliconlabs/simplicitystudio/v5/developer/toolchains/gnu_arm/12.2.rel1_2023.7/bin/../lib/gcc/arm-none-eabi/12.2.1/thumb/v8-m.main+fp/hard/crti.o
                0x000057a0                _init
 .init          0x000057a4        0x8 c:/siliconlabs/simplicitystudio/v5/developer/toolchains/gnu_arm/12.2.rel1_2023.7/bin/../lib/gcc/arm-none-eabi/12.2.1/thumb/v8-m.main+fp/hard/crtn.o
 *(.fini)
 .fini          0x000057ac        0x4 c:/siliconlabs/simplicitystudio/v5/developer/toolchains/gnu_arm/12.2.rel1_2023.7/bin/../lib/gcc/arm-none-eabi/12.2.1/thumb/v8-m.main+fp/hard/crti.o
                0x000057ac                _fini
 .fini          0x000057b0        0x8 c:/siliconlabs/simplicitystudio/v5/developer/toolchains/gnu_arm/12.2.rel1_2023.7/bin/../lib/gcc/arm-none-eabi/12.2.1/thumb/v8-m.main+fp/hard/crtn.o
 .fini.__stub   0x000057b8        0x8 linker stubs
 *crtbegin.o(.ctors)
 *crtbegin?.o(.ctors)
 *(EXCLUDE_FILE(*crtend.o *crtend?.o) .ctors)
 *(SORT_BY_NAME(.ctors.*))
 *(.ctors)
 *crtbegin.o(.dtors)
 *crtbegin?.o(.dtors)
 *(EXCLUDE_FILE(*crtend.o *crtend?.o) .dtors)
 *(SORT_BY_NAME(.dtors.*))
 *(.dtors)
                0x000057c0                __code_classification_validator_start__ = .
                0x000057e0                . = (. + 0x20)
 *fill*         0x000057c0       0x20 
 *(code_classification_validator)
                0x000057e0                . = ALIGN (0x20)
 *fill*         0x000057e0        0x0 
                0x000057e0                __code_classification_validator_end__ = .
 *(.rodata*)
 .rodata.app_init.str1.1
                0x000057e0       0xc9 ./app.o
                                 0xcc (size before relaxing)
 .rodata.app_process_action.str1.1
                0x000058a9       0x32 ./app.o
 *fill*         0x000058db        0x1 
 .rodata.sl_button_btn0
                0x000058dc       0x18 ./autogen/sl_simple_button_instances.o
                0x000058dc                sl_button_btn0
 .rodata.sl_led_led0
                0x000058f4       0x18 ./autogen/sl_simple_led_instances.o
                0x000058f4                sl_led_led0
 .rodata.GPIO_PinInGet.str1.1
                0x0000590c       0x50 ./gecko_sdk_4.5.0/platform/driver/button/src/sl_simple_button.o
 .rodata.sl_simple_button_init.str1.1
                0x0000595c       0x61 ./gecko_sdk_4.5.0/platform/driver/button/src/sl_simple_button.o
 *fill*         0x000059bd        0x1 
 .rodata.CSWTCH.6
                0x000059be        0x8 ./gecko_sdk_4.5.0/platform/driver/button/src/sl_simple_button.o
 .rodata.GPIO_PinOutClear.str1.1
                0x000059c6       0x50 ./gecko_sdk_4.5.0/platform/driver/leddrv/src/sl_simple_led.o
 .rodata.CSWTCH.18
                0x000059c6        0x8 ./gecko_sdk_4.5.0/platform/driver/leddrv/src/sl_simple_led.o
 .rodata        0x000059ce        0x4 ./gecko_sdk_4.5.0/platform/emdrv/dmadrv/src/dmadrv.o
 .rodata.GPIO_PinOutClear.str1.1
                0x000059d2       0x50 ./gecko_sdk_4.5.0/platform/emdrv/uartdrv/src/uartdrv.o
 .rodata.calculateSleeptimerTicksToFlushTxBuffers.str1.1
                0x000059d2       0x58 ./gecko_sdk_4.5.0/platform/emdrv/uartdrv/src/uartdrv.o
 .rodata.CSWTCH.91
                0x00005a2a        0x8 ./gecko_sdk_4.5.0/platform/emdrv/uartdrv/src/uartdrv.o
 *fill*         0x00005a32        0x2 
 .rodata        0x00005a34       0x3c ./gecko_sdk_4.5.0/platform/emdrv/uartdrv/src/uartdrv.o
 .rodata.HFRCODPLLDevinfoGet.str1.1
                0x00005a70       0x4f ./gecko_sdk_4.5.0/platform/emlib/src/em_cmu.o
 .rodata.CORE_NvicMaskSetIRQ.str1.1
                0x00005abf       0x50 ./gecko_sdk_4.5.0/platform/emlib/src/em_core.o
 .rodata.EMU_VScaleEM01.str1.1
                0x00005b0f       0x4f ./gecko_sdk_4.5.0/platform/emlib/src/em_emu.o
 .rodata.EUSART_Enable.str1.1
                0x00005b5e       0x52 ./gecko_sdk_4.5.0/platform/emlib/src/em_eusart.o
 .rodata.BUS_RegBitWrite.str1.1
                0x00005bb0       0x4f ./gecko_sdk_4.5.0/platform/emlib/src/em_gpio.o
 .rodata.GPIO_PinOutSet.str1.1
                0x00005bff       0x50 ./gecko_sdk_4.5.0/platform/emlib/src/em_gpio.o
 .rodata.GPIO_ExtIntConfig.str1.1
                0x00005bff       0x50 ./gecko_sdk_4.5.0/platform/emlib/src/em_gpio.o
 *fill*         0x00005c4f        0x1 
 .rodata.CSWTCH.31
                0x00005c50        0x8 ./gecko_sdk_4.5.0/platform/emlib/src/em_gpio.o
 .rodata.LDMA_EnableChannelRequest.str1.1
                0x00005c58       0x50 ./gecko_sdk_4.5.0/platform/emlib/src/em_ldma.o
                                 0x9f (size before relaxing)
 .rodata.RTCC_ChannelInit.str1.1
                0x00005ca8       0x50 ./gecko_sdk_4.5.0/platform/emlib/src/em_rtcc.o
 .rodata        0x00005cf8        0x8 ./gecko_sdk_4.5.0/platform/service/device_init/src/sl_device_init_dcdc_s2.o
 .rodata        0x00005d00       0x28 ./gecko_sdk_4.5.0/platform/service/device_init/src/sl_device_init_hfxo_s2.o
 .rodata        0x00005d28       0x14 ./gecko_sdk_4.5.0/platform/service/device_init/src/sl_device_init_lfxo_s2.o
 .rodata._write.str1.1
                0x00005d3c       0x6e ./gecko_sdk_4.5.0/platform/service/iostream/src/sl_iostream_retarget_stdio.o
 .rodata.power_manager_notify_em_transition.str1.1
                0x00005daa       0x69 ./gecko_sdk_4.5.0/platform/service/power_manager/src/sl_power_manager.o
 .rodata.CSWTCH.64
                0x00005e13        0x4 ./gecko_sdk_4.5.0/platform/service/power_manager/src/sl_power_manager.o
 .rodata.sli_power_manager_init_hardware.str1.1
                0x00005e17       0x70 ./gecko_sdk_4.5.0/platform/service/power_manager/src/sl_power_manager_hal_s2.o
 .rodata.process_timer_irq.str1.1
                0x00005e87       0x63 ./gecko_sdk_4.5.0/platform/service/sleeptimer/src/sl_sleeptimer.o
 .rodata        0x00005eea        0xb ./gecko_sdk_4.5.0/platform/service/sleeptimer/src/sl_sleeptimer_hal_rtcc.o
 .rodata._vfprintf_r.str1.1
                0x00005ef5       0x11 c:/siliconlabs/simplicitystudio/v5/developer/toolchains/gnu_arm/12.2.rel1_2023.7/bin/../lib/gcc/arm-none-eabi/12.2.1/thumb/v8-m.main+fp/hard\libc_nano.a(libc_a-nano-vfprintf.o)
 .rodata._printf_i.str1.1
                0x00005f06       0x22 c:/siliconlabs/simplicitystudio/v5/developer/toolchains/gnu_arm/12.2.rel1_2023.7/bin/../lib/gcc/arm-none-eabi/12.2.1/thumb/v8-m.main+fp/hard\libc_nano.a(libc_a-nano-vfprintf_i.o)
 *(.eh_frame*)
 .eh_frame      0x00005f28        0x0 c:/siliconlabs/simplicitystudio/v5/developer/toolchains/gnu_arm/12.2.rel1_2023.7/bin/../lib/gcc/arm-none-eabi/12.2.1/thumb/v8-m.main+fp/hard/crtbegin.o

.glue_7         0x00005f28        0x0
 .glue_7        0x00005f28        0x0 linker stubs

.glue_7t        0x00005f28        0x0
 .glue_7t       0x00005f28        0x0 linker stubs

.vfp11_veneer   0x00005f28        0x0
 .vfp11_veneer  0x00005f28        0x0 linker stubs

.v4_bx          0x00005f28        0x0
 .v4_bx         0x00005f28        0x0 linker stubs

.iplt           0x00005f28        0x0
 .iplt          0x00005f28        0x0 c:/siliconlabs/simplicitystudio/v5/developer/toolchains/gnu_arm/12.2.rel1_2023.7/bin/../lib/gcc/arm-none-eabi/12.2.1/thumb/v8-m.main+fp/hard/crtbegin.o

.ARM.extab
 *(.ARM.extab* .gnu.linkonce.armextab.*)
                0x00005f28                __exidx_start = .

.ARM.exidx      0x00005f28        0x8
 *(.ARM.exidx* .gnu.linkonce.armexidx.*)
 .ARM.exidx     0x00005f28        0x8 c:/siliconlabs/simplicitystudio/v5/developer/toolchains/gnu_arm/12.2.rel1_2023.7/bin/../lib/gcc/arm-none-eabi/12.2.1/thumb/v8-m.main+fp/hard/crt0.o
                                 0x10 (size before relaxing)
 .ARM.exidx.text.__udivmoddi4
                0x00005f30        0x0 c:/siliconlabs/simplicitystudio/v5/developer/toolchains/gnu_arm/12.2.rel1_2023.7/bin/../lib/gcc/arm-none-eabi/12.2.1/thumb/v8-m.main+fp/hard\libgcc.a(_udivmoddi4.o)
                                  0x8 (size before relaxing)
                0x00005f30                __exidx_end = .

.rel.dyn        0x00005f30        0x0
 .rel.iplt      0x00005f30        0x0 c:/siliconlabs/simplicitystudio/v5/developer/toolchains/gnu_arm/12.2.rel1_2023.7/bin/../lib/gcc/arm-none-eabi/12.2.1/thumb/v8-m.main+fp/hard/crtbegin.o

.copy.table     0x00005f30        0xc
                0x00005f30                . = ALIGN (0x4)
                0x00005f30                __copy_table_start__ = .
                0x00005f30        0x4 LONG 0x5f3c __etext
                0x00005f34        0x4 LONG 0x20001000 __data_start__
                0x00005f38        0x4 LONG 0x7a ((__data_end__ - __data_start__) / 0x4)
                0x00005f3c                __copy_table_end__ = .

.zero.table     0x00005f3c        0x0
                0x00005f3c                . = ALIGN (0x4)
                0x00005f3c                __zero_table_start__ = .
                0x00005f3c                __zero_table_end__ = .
                0x00005f3c                __etext = .
                0x20000000                . = ORIGIN (RAM)

.stack          0x20000000     0x1000
                0x20000000                __StackLimit = .
 *(.stack*)
 .stack         0x20000000     0x1000 ./gecko_sdk_4.5.0/platform/common/toolchain/src/sl_memory.o
                0x20001000                . = ALIGN (0x4)
                0x20001000                __StackTop = .
                0x20001000                PROVIDE (__stack = __StackTop)

.noinit
 *(.noinit*)

.data           0x20001000      0x1e8 load address 0x00005f3c
                0x20001000                . = ALIGN (0x4)
                0x20001000                __data_start__ = .
 *(vtable)
 *(SORT_BY_ALIGNMENT(.data*))
 .data.sl_simple_button_array
                0x20001000        0x4 ./autogen/sl_simple_button_instances.o
                0x20001000                sl_simple_button_array
 .data.sl_uartdrv_eusart_init_vcom
                0x20001004       0x2c ./autogen/sl_uartdrv_init.o
                0x20001004                sl_uartdrv_eusart_init_vcom
 .data.sl_uartdrv_eusart_vcom_tx_buffer
                0x20001030       0x80 ./autogen/sl_uartdrv_init.o
 .data.sl_uartdrv_eusart_vcom_rx_buffer
                0x200010b0       0x80 ./autogen/sl_uartdrv_init.o
 .data.sl_uartdrv_eusart_vcom_handle
                0x20001130        0x4 ./autogen/sl_uartdrv_init.o
                0x20001130                sl_uartdrv_eusart_vcom_handle
 .data.SystemCoreClock
                0x20001134        0x4 ./gecko_sdk_4.5.0/platform/Device/SiliconLabs/EFR32BG22/Source/system_efr32bg22.o
                0x20001134                SystemCoreClock
 .data.SystemHFRCODPLLClock
                0x20001138        0x4 ./gecko_sdk_4.5.0/platform/Device/SiliconLabs/EFR32BG22/Source/system_efr32bg22.o
 .data.SystemLFXOClock
                0x2000113c        0x4 ./gecko_sdk_4.5.0/platform/Device/SiliconLabs/EFR32BG22/Source/system_efr32bg22.o
 .data.SystemHFXOClock
                0x20001140        0x4 ./gecko_sdk_4.5.0/platform/Device/SiliconLabs/EFR32BG22/Source/system_efr32bg22.o
 .data.heap_end.0
                0x20001144        0x4 ./gecko_sdk_4.5.0/platform/common/toolchain/src/sl_memory.o
 .data.__sglue  0x20001148        0xc c:/siliconlabs/simplicitystudio/v5/developer/toolchains/gnu_arm/12.2.rel1_2023.7/bin/../lib/gcc/arm-none-eabi/12.2.1/thumb/v8-m.main+fp/hard\libc_nano.a(libc_a-findfp.o)
                0x20001148                __sglue
 .data._impure_ptr
                0x20001154        0x4 c:/siliconlabs/simplicitystudio/v5/developer/toolchains/gnu_arm/12.2.rel1_2023.7/bin/../lib/gcc/arm-none-eabi/12.2.1/thumb/v8-m.main+fp/hard\libc_nano.a(libc_a-impure.o)
                0x20001154                _impure_ptr
 .data._impure_data
                0x20001158       0x4c c:/siliconlabs/simplicitystudio/v5/developer/toolchains/gnu_arm/12.2.rel1_2023.7/bin/../lib/gcc/arm-none-eabi/12.2.1/thumb/v8-m.main+fp/hard\libc_nano.a(libc_a-impure.o)
                0x20001158                _impure_data
 .data.simple_btn0_context
                0x200011a4        0x8 ./autogen/sl_simple_button_instances.o
                0x200011a4                simple_btn0_context
 .data.hfxo_precision
                0x200011ac        0x2 ./gecko_sdk_4.5.0/platform/emlib/src/em_cmu.o
 .data.lfxo_precision
                0x200011ae        0x2 ./gecko_sdk_4.5.0/platform/emlib/src/em_cmu.o
 .data.simple_led0_context
                0x200011b0        0x3 ./autogen/sl_simple_led_instances.o
                0x200011b0                simple_led0_context
 .data.disabled
                0x200011b3        0x1 ./gecko_sdk_4.5.0/app/common/util/app_button_press/app_button_press.o
 .data.is_fast_wakeup_enabled
                0x200011b4        0x1 ./gecko_sdk_4.5.0/platform/service/power_manager/src/sl_power_manager_hal_s2.o
 .data.cc_disabled
                0x200011b5        0x1 ./gecko_sdk_4.5.0/platform/service/sleeptimer/src/sl_sleeptimer_hal_rtcc.o
                0x200011b8                . = ALIGN (0x4)
 *fill*         0x200011b6        0x2 
                [!provide]                PROVIDE (__ram_func_section_start = .)
 *(.ram)
 .ram           0x200011b8       0x28 ./gecko_sdk_4.5.0/platform/emlib/src/em_emu.o
                [!provide]                PROVIDE (__ram_func_section_end = .)
                0x200011e0                . = ALIGN (0x4)
                0x200011e0                PROVIDE (__preinit_array_start = .)
 *(.preinit_array)
                0x200011e0                PROVIDE (__preinit_array_end = .)
                0x200011e0                . = ALIGN (0x4)
                0x200011e0                PROVIDE (__init_array_start = .)
 *(SORT_BY_NAME(.init_array.*))
 *(.init_array)
 .init_array    0x200011e0        0x4 c:/siliconlabs/simplicitystudio/v5/developer/toolchains/gnu_arm/12.2.rel1_2023.7/bin/../lib/gcc/arm-none-eabi/12.2.1/thumb/v8-m.main+fp/hard/crtbegin.o
                0x200011e4                PROVIDE (__init_array_end = .)
                0x200011e4                . = ALIGN (0x4)
                [!provide]                PROVIDE (__fini_array_start = .)
 *(SORT_BY_NAME(.fini_array.*))
 *(.fini_array)
 .fini_array    0x200011e4        0x4 c:/siliconlabs/simplicitystudio/v5/developer/toolchains/gnu_arm/12.2.rel1_2023.7/bin/../lib/gcc/arm-none-eabi/12.2.1/thumb/v8-m.main+fp/hard/crtbegin.o
                [!provide]                PROVIDE (__fini_array_end = .)
                0x200011e8                . = ALIGN (0x4)
                0x200011e8                __data_end__ = .

.tm_clone_table
                0x200011e8        0x0 load address 0x00006124
 .tm_clone_table
                0x200011e8        0x0 c:/siliconlabs/simplicitystudio/v5/developer/toolchains/gnu_arm/12.2.rel1_2023.7/bin/../lib/gcc/arm-none-eabi/12.2.1/thumb/v8-m.main+fp/hard/crtbegin.o
 .tm_clone_table
                0x200011e8        0x0 c:/siliconlabs/simplicitystudio/v5/developer/toolchains/gnu_arm/12.2.rel1_2023.7/bin/../lib/gcc/arm-none-eabi/12.2.1/thumb/v8-m.main+fp/hard/crtend.o

.igot.plt       0x200011e8        0x0 load address 0x00006124
 .igot.plt      0x200011e8        0x0 c:/siliconlabs/simplicitystudio/v5/developer/toolchains/gnu_arm/12.2.rel1_2023.7/bin/../lib/gcc/arm-none-eabi/12.2.1/thumb/v8-m.main+fp/hard/crtbegin.o

.bss            0x200011e8      0x614 load address 0x00006124
                0x200011e8                . = ALIGN (0x4)
                0x200011e8                __bss_start__ = .
 *(SORT_BY_ALIGNMENT(.bss*))
 .bss.object.0  0x200011e8       0x18 c:/siliconlabs/simplicitystudio/v5/developer/toolchains/gnu_arm/12.2.rel1_2023.7/bin/../lib/gcc/arm-none-eabi/12.2.1/thumb/v8-m.main+fp/hard/crtbegin.o
 .bss.last_print_time.0
                0x20001200        0x4 ./app.o
 .bss.sli_uartdrv_default_handle
                0x20001204        0x4 ./autogen/sl_uartdrv_init.o
 .bss.sl_uartdrv_eusart_vcom_handle_data
                0x20001208       0x60 ./autogen/sl_uartdrv_init.o
                0x20001208                sl_uartdrv_eusart_vcom_handle_data
 .bss.buttons   0x20001268        0x8 ./gecko_sdk_4.5.0/app/common/util/app_button_press/app_button_press.o
 .bss.uartdrv_handle
                0x20001270        0x4 ./gecko_sdk_4.5.0/hardware/driver/configuration_over_swo/src/sl_cos.o
 .bss.dmaXfer   0x20001274      0x100 ./gecko_sdk_4.5.0/platform/emdrv/dmadrv/src/dmadrv.o
 .bss.chTable   0x20001374       0x80 ./gecko_sdk_4.5.0/platform/emdrv/dmadrv/src/dmadrv.o
 .bss.gpioCallbacks
                0x200013f4      0x200 ./gecko_sdk_4.5.0/platform/emdrv/gpiointerrupt/src/gpiointerrupt.o
 .bss.uartdrvHandle
                0x200015f4       0x10 ./gecko_sdk_4.5.0/platform/emdrv/uartdrv/src/uartdrv.o
 .bss.dpllRefClk.0
                0x20001604        0x4 ./gecko_sdk_4.5.0/platform/emlib/src/em_emu.o
 .bss.sli_iostream_default
                0x20001608        0x4 ./gecko_sdk_4.5.0/platform/service/iostream/src/sl_iostream.o
 .bss.wakeup_time_config_overhead_tick
                0x2000160c        0x4 ./gecko_sdk_4.5.0/platform/service/power_manager/src/sl_power_manager.o
                0x2000160c                wakeup_time_config_overhead_tick
 .bss.high_frequency_min_offtime_tick
                0x20001610        0x4 ./gecko_sdk_4.5.0/platform/service/power_manager/src/sl_power_manager.o
                0x20001610                high_frequency_min_offtime_tick
 .bss.clock_wakeup_timer_handle
                0x20001614       0x20 ./gecko_sdk_4.5.0/platform/service/power_manager/src/sl_power_manager.o
 .bss.sleeptimer_frequency
                0x20001634        0x4 ./gecko_sdk_4.5.0/platform/service/power_manager/src/sl_power_manager.o
 .bss.power_manager_em_transition_event_list
                0x20001638        0x4 ./gecko_sdk_4.5.0/platform/service/power_manager/src/sl_power_manager.o
 .bss.hfxo_wakeup_time_tick
                0x2000163c        0x4 ./gecko_sdk_4.5.0/platform/service/power_manager/src/sl_power_manager_hal_s2.o
 .bss.hfxo_wakeup_time_sum_average
                0x20001640        0x4 ./gecko_sdk_4.5.0/platform/service/power_manager/src/sl_power_manager_hal_s2.o
 .bss.hfxo_wakeup_time_table
                0x20001644       0x28 ./gecko_sdk_4.5.0/platform/service/power_manager/src/sl_power_manager_hal_s2.o
 .bss.hf_x_oscillator_wakeup_time_tc_inital
                0x2000166c        0x4 ./gecko_sdk_4.5.0/platform/service/power_manager/src/sl_power_manager_hal_s2.o
 .bss.process_wakeup_overhead_tick
                0x20001670        0x4 ./gecko_sdk_4.5.0/platform/service/power_manager/src/sl_power_manager_hal_s2.o
 .bss.cmu_sys_clock_register
                0x20001674        0x4 ./gecko_sdk_4.5.0/platform/service/power_manager/src/sl_power_manager_hal_s2.o
                0x20001674                cmu_sys_clock_register
 .bss.cmu_dpll_ref_clock_register
                0x20001678        0x4 ./gecko_sdk_4.5.0/platform/service/power_manager/src/sl_power_manager_hal_s2.o
                0x20001678                cmu_dpll_ref_clock_register
 .bss.cmu_em01_grpB_clock_register
                0x2000167c        0x4 ./gecko_sdk_4.5.0/platform/service/power_manager/src/sl_power_manager_hal_s2.o
                0x2000167c                cmu_em01_grpB_clock_register
 .bss.cmu_em01_grpA_clock_register
                0x20001680        0x4 ./gecko_sdk_4.5.0/platform/service/power_manager/src/sl_power_manager_hal_s2.o
                0x20001680                cmu_em01_grpA_clock_register
 .bss.max_millisecond_conversion
                0x20001684        0x4 ./gecko_sdk_4.5.0/platform/service/sleeptimer/src/sl_sleeptimer.o
 .bss.last_delta_update_count
                0x20001688        0x4 ./gecko_sdk_4.5.0/platform/service/sleeptimer/src/sl_sleeptimer.o
 .bss.timer_head
                0x2000168c        0x4 ./gecko_sdk_4.5.0/platform/service/sleeptimer/src/sl_sleeptimer.o
 .bss.timer_frequency
                0x20001690        0x4 ./gecko_sdk_4.5.0/platform/service/sleeptimer/src/sl_sleeptimer.o
 .bss.__sf      0x20001694      0x138 c:/siliconlabs/simplicitystudio/v5/developer/toolchains/gnu_arm/12.2.rel1_2023.7/bin/../lib/gcc/arm-none-eabi/12.2.1/thumb/v8-m.main+fp/hard\libc_nano.a(libc_a-findfp.o)
                0x20001694                __sf
 .bss.__stdio_exit_handler
                0x200017cc        0x4 c:/siliconlabs/simplicitystudio/v5/developer/toolchains/gnu_arm/12.2.rel1_2023.7/bin/../lib/gcc/arm-none-eabi/12.2.1/thumb/v8-m.main+fp/hard\libc_nano.a(libc_a-findfp.o)
                0x200017cc                __stdio_exit_handler
 .bss.errno     0x200017d0        0x4 c:/siliconlabs/simplicitystudio/v5/developer/toolchains/gnu_arm/12.2.rel1_2023.7/bin/../lib/gcc/arm-none-eabi/12.2.1/thumb/v8-m.main+fp/hard\libc_nano.a(libc_a-reent.o)
                0x200017d0                errno
 .bss.__malloc_sbrk_start
                0x200017d4        0x4 c:/siliconlabs/simplicitystudio/v5/developer/toolchains/gnu_arm/12.2.rel1_2023.7/bin/../lib/gcc/arm-none-eabi/12.2.1/thumb/v8-m.main+fp/hard\libc_nano.a(libc_a-mallocr.o)
                0x200017d4                __malloc_sbrk_start
 .bss.__malloc_free_list
                0x200017d8        0x4 c:/siliconlabs/simplicitystudio/v5/developer/toolchains/gnu_arm/12.2.rel1_2023.7/bin/../lib/gcc/arm-none-eabi/12.2.1/thumb/v8-m.main+fp/hard\libc_nano.a(libc_a-mallocr.o)
                0x200017d8                __malloc_free_list
 .bss.overflow_counter
                0x200017dc        0x2 ./gecko_sdk_4.5.0/platform/service/sleeptimer/src/sl_sleeptimer.o
 .bss.completed.1
                0x200017de        0x1 c:/siliconlabs/simplicitystudio/v5/developer/toolchains/gnu_arm/12.2.rel1_2023.7/bin/../lib/gcc/arm-none-eabi/12.2.1/thumb/v8-m.main+fp/hard/crtbegin.o
 .bss.initialized
                0x200017df        0x1 ./gecko_sdk_4.5.0/platform/emdrv/dmadrv/src/dmadrv.o
 .bss.uartdrvHandleIsInitialized
                0x200017e0        0x1 ./gecko_sdk_4.5.0/platform/emdrv/uartdrv/src/uartdrv.o
 .bss.ctuneDelta
                0x200017e1        0x1 ./gecko_sdk_4.5.0/platform/emlib/src/em_cmu.o
 .bss.vScaleEM01Config
                0x200017e2        0x1 ./gecko_sdk_4.5.0/platform/emlib/src/em_emu.o
 .bss.is_restored_from_hfxo_isr_internal
                0x200017e3        0x1 ./gecko_sdk_4.5.0/platform/service/power_manager/src/sl_power_manager.o
 .bss.is_restored_from_hfxo_isr
                0x200017e4        0x1 ./gecko_sdk_4.5.0/platform/service/power_manager/src/sl_power_manager.o
 .bss.is_actively_waiting_for_clock_restore
                0x200017e5        0x1 ./gecko_sdk_4.5.0/platform/service/power_manager/src/sl_power_manager.o
 .bss.is_hf_x_oscillator_not_preserved
                0x200017e6        0x1 ./gecko_sdk_4.5.0/platform/service/power_manager/src/sl_power_manager.o
 .bss.requirement_on_em1_added
                0x200017e7        0x1 ./gecko_sdk_4.5.0/platform/service/power_manager/src/sl_power_manager.o
 .bss.is_states_saved
                0x200017e8        0x1 ./gecko_sdk_4.5.0/platform/service/power_manager/src/sl_power_manager.o
 .bss.is_sleeping_waiting_for_clock_restore
                0x200017e9        0x1 ./gecko_sdk_4.5.0/platform/service/power_manager/src/sl_power_manager.o
 .bss.waiting_clock_restore_from_em
                0x200017ea        0x1 ./gecko_sdk_4.5.0/platform/service/power_manager/src/sl_power_manager.o
 .bss.requirement_high_accuracy_hf_clock_back_to_zero
                0x200017eb        0x1 ./gecko_sdk_4.5.0/platform/service/power_manager/src/sl_power_manager.o
                0x200017eb                requirement_high_accuracy_hf_clock_back_to_zero
 .bss.requirement_high_accuracy_hf_clock_counter
                0x200017ec        0x1 ./gecko_sdk_4.5.0/platform/service/power_manager/src/sl_power_manager.o
                0x200017ec                requirement_high_accuracy_hf_clock_counter
 .bss.requirement_em_table
                0x200017ed        0x2 ./gecko_sdk_4.5.0/platform/service/power_manager/src/sl_power_manager.o
 .bss.current_em
                0x200017ef        0x1 ./gecko_sdk_4.5.0/platform/service/power_manager/src/sl_power_manager.o
 .bss.is_initialized
                0x200017f0        0x1 ./gecko_sdk_4.5.0/platform/service/power_manager/src/sl_power_manager.o
 .bss.hfxo_wakeup_time_table_index
                0x200017f1        0x1 ./gecko_sdk_4.5.0/platform/service/power_manager/src/sl_power_manager_hal_s2.o
 .bss.is_hf_x_oscillator_already_started
                0x200017f2        0x1 ./gecko_sdk_4.5.0/platform/service/power_manager/src/sl_power_manager_hal_s2.o
 .bss.is_entering_deepsleep
                0x200017f3        0x1 ./gecko_sdk_4.5.0/platform/service/power_manager/src/sl_power_manager_hal_s2.o
 .bss.is_dpll_used
                0x200017f4        0x1 ./gecko_sdk_4.5.0/platform/service/power_manager/src/sl_power_manager_hal_s2.o
 .bss.is_hf_x_oscillator_used
                0x200017f5        0x1 ./gecko_sdk_4.5.0/platform/service/power_manager/src/sl_power_manager_hal_s2.o
 .bss.sleep_on_isr_exit
                0x200017f6        0x1 ./gecko_sdk_4.5.0/platform/service/sleeptimer/src/sl_sleeptimer.o
 .bss.next_timer_to_expire_is_power_manager
                0x200017f7        0x1 ./gecko_sdk_4.5.0/platform/service/sleeptimer/src/sl_sleeptimer.o
 .bss.is_sleeptimer_initialized
                0x200017f8        0x1 ./gecko_sdk_4.5.0/platform/service/sleeptimer/src/sl_sleeptimer.o
 .bss.__lock___malloc_recursive_mutex
                0x200017f9        0x1 c:/siliconlabs/simplicitystudio/v5/developer/toolchains/gnu_arm/12.2.rel1_2023.7/bin/../lib/gcc/arm-none-eabi/12.2.1/thumb/v8-m.main+fp/hard\libc_nano.a(libc_a-lock.o)
                0x200017f9                __lock___malloc_recursive_mutex
 .bss.__lock___sfp_recursive_mutex
                0x200017fa        0x1 c:/siliconlabs/simplicitystudio/v5/developer/toolchains/gnu_arm/12.2.rel1_2023.7/bin/../lib/gcc/arm-none-eabi/12.2.1/thumb/v8-m.main+fp/hard\libc_nano.a(libc_a-lock.o)
                0x200017fa                __lock___sfp_recursive_mutex
 *(COMMON)
                0x200017fc                . = ALIGN (0x4)
 *fill*         0x200017fb        0x1 
                0x200017fc                __bss_end__ = .
                0x200017fc                __ramfuncs_start__ = .
                0x200017fc                __vma_ramfuncs_start__ = .
                0x00006124                __lma_ramfuncs_start__ = (__etext + SIZEOF (.data))
                0x00000000                __text_application_ram_offset__ = (. - __vma_ramfuncs_start__)

text_application_ram
                0x200017fc        0x0 load address 0x00006124
                0x200017fc                . = ALIGN (0x4)
                0x200017fc                __text_application_ram_start__ = .
 *(text_application_ram)
                0x200017fc                . = ALIGN (0x4)
                0x200017fc                __text_application_ram_end__ = .
                0x200017fc                . = ALIGN (0x4)
                0x200017fc                __vma_ramfuncs_end__ = .
                0x00006124                __lma_ramfuncs_end__ = ((__lma_ramfuncs_start__ + __text_application_ram_offset__) + SIZEOF (text_application_ram))
                0x200017fc                __ramfuncs_end__ = .

.heap           0x20001800      0x800
                0x20001800                __HeapBase = .
                0x20001800                __end__ = .
                0x20001800                end = __end__
                0x20001800                _end = __end__
 *(.heap*)
 .heap          0x20001800      0x800 ./gecko_sdk_4.5.0/platform/common/toolchain/src/sl_memory.o
                0x20008000                __HeapLimit = (ORIGIN (RAM) + LENGTH (RAM))
                0x00006800                __heap_size = (__HeapLimit - __HeapBase)
                0x20008000                __ram_end__ = 0x20008000
                0x0007e000                __main_flash_end__ = 0x7e000

.internal_storage
 *(.internal_storage*)

.nvm
 *(.simee*)
                0x0007e000                linker_nvm_end = __main_flash_end__
                0x0007e000                linker_nvm_begin = (linker_nvm_end - SIZEOF (.nvm))
                0x00000000                linker_nvm_size = SIZEOF (.nvm)
                0x0007e000                linker_storage_end = linker_nvm_begin
                0x0007e000                __nvm3Base = linker_nvm_begin
                0x0007e000                linker_storage_begin = (linker_storage_end - SIZEOF (.internal_storage))
                0x00000000                linker_storage_size = SIZEOF (.internal_storage)
                0x00000001                ASSERT ((linker_storage_begin >= (__etext + SIZEOF (.data))), FLASH memory overflowed !)
OUTPUT(led_blink_learning.axf elf32-littlearm)
LOAD linker stubs

.ARM.attributes
                0x00000000       0x36
 .ARM.attributes
                0x00000000       0x26 c:/siliconlabs/simplicitystudio/v5/developer/toolchains/gnu_arm/12.2.rel1_2023.7/bin/../lib/gcc/arm-none-eabi/12.2.1/thumb/v8-m.main+fp/hard/crti.o
 .ARM.attributes
                0x00000026       0x38 c:/siliconlabs/simplicitystudio/v5/developer/toolchains/gnu_arm/12.2.rel1_2023.7/bin/../lib/gcc/arm-none-eabi/12.2.1/thumb/v8-m.main+fp/hard/crtbegin.o
 .ARM.attributes
                0x0000005e       0x24 c:/siliconlabs/simplicitystudio/v5/developer/toolchains/gnu_arm/12.2.rel1_2023.7/bin/../lib/gcc/arm-none-eabi/12.2.1/thumb/v8-m.main+fp/hard/crt0.o
 .ARM.attributes
                0x00000082       0x3a ./app.o
 .ARM.attributes
                0x000000bc       0x3a ./main.o
 .ARM.attributes
                0x000000f6       0x3a ./autogen/sl_board_default_init.o
 .ARM.attributes
                0x00000130       0x3a ./autogen/sl_device_init_clocks.o
 .ARM.attributes
                0x0000016a       0x3a ./autogen/sl_event_handler.o
 .ARM.attributes
                0x000001a4       0x3a ./autogen/sl_power_manager_handler.o
 .ARM.attributes
                0x000001de       0x3a ./autogen/sl_simple_button_instances.o
 .ARM.attributes
                0x00000218       0x3a ./autogen/sl_simple_led_instances.o
 .ARM.attributes
                0x00000252       0x3a ./autogen/sl_uartdrv_init.o
 .ARM.attributes
                0x0000028c       0x3a ./gecko_sdk_4.5.0/app/common/util/app_button_press/app_button_press.o
 .ARM.attributes
                0x000002c6       0x3a ./gecko_sdk_4.5.0/hardware/board/src/sl_board_control_gpio.o
 .ARM.attributes
                0x00000300       0x3a ./gecko_sdk_4.5.0/hardware/board/src/sl_board_init.o
 .ARM.attributes
                0x0000033a       0x3a ./gecko_sdk_4.5.0/hardware/driver/configuration_over_swo/src/sl_cos.o
 .ARM.attributes
                0x00000374       0x3a ./gecko_sdk_4.5.0/platform/Device/SiliconLabs/EFR32BG22/Source/startup_efr32bg22.o
 .ARM.attributes
                0x000003ae       0x3a ./gecko_sdk_4.5.0/platform/Device/SiliconLabs/EFR32BG22/Source/system_efr32bg22.o
 .ARM.attributes
                0x000003e8       0x3a ./gecko_sdk_4.5.0/platform/common/src/sl_assert.o
 .ARM.attributes
                0x00000422       0x3a ./gecko_sdk_4.5.0/platform/common/src/sl_slist.o
 .ARM.attributes
                0x0000045c       0x3a ./gecko_sdk_4.5.0/platform/common/toolchain/src/sl_memory.o
 .ARM.attributes
                0x00000496       0x3a ./gecko_sdk_4.5.0/platform/driver/button/src/sl_button.o
 .ARM.attributes
                0x000004d0       0x3a ./gecko_sdk_4.5.0/platform/driver/button/src/sl_simple_button.o
 .ARM.attributes
                0x0000050a       0x3a ./gecko_sdk_4.5.0/platform/driver/debug/src/sl_debug_swo.o
 .ARM.attributes
                0x00000544       0x3a ./gecko_sdk_4.5.0/platform/driver/leddrv/src/sl_led.o
 .ARM.attributes
                0x0000057e       0x3a ./gecko_sdk_4.5.0/platform/driver/leddrv/src/sl_simple_led.o
 .ARM.attributes
                0x000005b8       0x3a ./gecko_sdk_4.5.0/platform/emdrv/dmadrv/src/dmadrv.o
 .ARM.attributes
                0x000005f2       0x3a ./gecko_sdk_4.5.0/platform/emdrv/gpiointerrupt/src/gpiointerrupt.o
 .ARM.attributes
                0x0000062c       0x3a ./gecko_sdk_4.5.0/platform/emdrv/uartdrv/src/uartdrv.o
 .ARM.attributes
                0x00000666       0x3a ./gecko_sdk_4.5.0/platform/emlib/src/em_cmu.o
 .ARM.attributes
                0x000006a0       0x3a ./gecko_sdk_4.5.0/platform/emlib/src/em_core.o
 .ARM.attributes
                0x000006da       0x3a ./gecko_sdk_4.5.0/platform/emlib/src/em_emu.o
 .ARM.attributes
                0x00000714       0x3a ./gecko_sdk_4.5.0/platform/emlib/src/em_eusart.o
 .ARM.attributes
                0x0000074e       0x3a ./gecko_sdk_4.5.0/platform/emlib/src/em_gpio.o
 .ARM.attributes
                0x00000788       0x3a ./gecko_sdk_4.5.0/platform/emlib/src/em_ldma.o
 .ARM.attributes
                0x000007c2       0x3a ./gecko_sdk_4.5.0/platform/emlib/src/em_rtcc.o
 .ARM.attributes
                0x000007fc       0x3a ./gecko_sdk_4.5.0/platform/emlib/src/em_system.o
 .ARM.attributes
                0x00000836       0x3a ./gecko_sdk_4.5.0/platform/emlib/src/em_usart.o
 .ARM.attributes
                0x00000870       0x3a ./gecko_sdk_4.5.0/platform/service/device_init/src/sl_device_init_dcdc_s2.o
 .ARM.attributes
                0x000008aa       0x3a ./gecko_sdk_4.5.0/platform/service/device_init/src/sl_device_init_emu_s2.o
 .ARM.attributes
                0x000008e4       0x3a ./gecko_sdk_4.5.0/platform/service/device_init/src/sl_device_init_hfxo_s2.o
 .ARM.attributes
                0x0000091e       0x3a ./gecko_sdk_4.5.0/platform/service/device_init/src/sl_device_init_lfxo_s2.o
 .ARM.attributes
                0x00000958       0x3a ./gecko_sdk_4.5.0/platform/service/device_init/src/sl_device_init_nvic.o
 .ARM.attributes
                0x00000992       0x3a ./gecko_sdk_4.5.0/platform/service/iostream/src/sl_iostream.o
 .ARM.attributes
                0x000009cc       0x3a ./gecko_sdk_4.5.0/platform/service/iostream/src/sl_iostream_retarget_stdio.o
 .ARM.attributes
                0x00000a06       0x3a ./gecko_sdk_4.5.0/platform/service/power_manager/src/sl_power_manager.o
 .ARM.attributes
                0x00000a40       0x3a ./gecko_sdk_4.5.0/platform/service/power_manager/src/sl_power_manager_hal_s2.o
 .ARM.attributes
                0x00000a7a       0x3a ./gecko_sdk_4.5.0/platform/service/sleeptimer/src/sl_sleeptimer.o
 .ARM.attributes
                0x00000ab4       0x3a ./gecko_sdk_4.5.0/platform/service/sleeptimer/src/sl_sleeptimer_hal_rtcc.o
 .ARM.attributes
                0x00000aee       0x3a ./gecko_sdk_4.5.0/platform/service/system/src/sl_system_init.o
 .ARM.attributes
                0x00000b28       0x3a ./gecko_sdk_4.5.0/platform/service/system/src/sl_system_process_action.o
 .ARM.attributes
                0x00000b62       0x26 c:/siliconlabs/simplicitystudio/v5/developer/toolchains/gnu_arm/12.2.rel1_2023.7/bin/../lib/gcc/arm-none-eabi/12.2.1/thumb/v8-m.main+fp/hard\libgcc.a(_aeabi_uldivmod.o)
 .ARM.attributes
                0x00000b88       0x38 c:/siliconlabs/simplicitystudio/v5/developer/toolchains/gnu_arm/12.2.rel1_2023.7/bin/../lib/gcc/arm-none-eabi/12.2.1/thumb/v8-m.main+fp/hard\libgcc.a(_udivmoddi4.o)
 .ARM.attributes
                0x00000bc0       0x26 c:/siliconlabs/simplicitystudio/v5/developer/toolchains/gnu_arm/12.2.rel1_2023.7/bin/../lib/gcc/arm-none-eabi/12.2.1/thumb/v8-m.main+fp/hard\libgcc.a(_dvmd_tls.o)
 .ARM.attributes
                0x00000be6       0x38 c:/siliconlabs/simplicitystudio/v5/developer/toolchains/gnu_arm/12.2.rel1_2023.7/bin/../lib/gcc/arm-none-eabi/12.2.1/thumb/v8-m.main+fp/hard\libc_nano.a(libc_a-exit.o)
 .ARM.attributes
                0x00000c1e       0x38 c:/siliconlabs/simplicitystudio/v5/developer/toolchains/gnu_arm/12.2.rel1_2023.7/bin/../lib/gcc/arm-none-eabi/12.2.1/thumb/v8-m.main+fp/hard\libc_nano.a(libc_a-findfp.o)
 .ARM.attributes
                0x00000c56       0x38 c:/siliconlabs/simplicitystudio/v5/developer/toolchains/gnu_arm/12.2.rel1_2023.7/bin/../lib/gcc/arm-none-eabi/12.2.1/thumb/v8-m.main+fp/hard\libc_nano.a(libc_a-fwalk.o)
 .ARM.attributes
                0x00000c8e       0x38 c:/siliconlabs/simplicitystudio/v5/developer/toolchains/gnu_arm/12.2.rel1_2023.7/bin/../lib/gcc/arm-none-eabi/12.2.1/thumb/v8-m.main+fp/hard\libc_nano.a(libc_a-printf.o)
 .ARM.attributes
                0x00000cc6       0x38 c:/siliconlabs/simplicitystudio/v5/developer/toolchains/gnu_arm/12.2.rel1_2023.7/bin/../lib/gcc/arm-none-eabi/12.2.1/thumb/v8-m.main+fp/hard\libc_nano.a(libc_a-stdio.o)
 .ARM.attributes
                0x00000cfe       0x38 c:/siliconlabs/simplicitystudio/v5/developer/toolchains/gnu_arm/12.2.rel1_2023.7/bin/../lib/gcc/arm-none-eabi/12.2.1/thumb/v8-m.main+fp/hard\libc_nano.a(libc_a-memset.o)
 .ARM.attributes
                0x00000d36       0x38 c:/siliconlabs/simplicitystudio/v5/developer/toolchains/gnu_arm/12.2.rel1_2023.7/bin/../lib/gcc/arm-none-eabi/12.2.1/thumb/v8-m.main+fp/hard\libc_nano.a(libc_a-closer.o)
 .ARM.attributes
                0x00000d6e       0x38 c:/siliconlabs/simplicitystudio/v5/developer/toolchains/gnu_arm/12.2.rel1_2023.7/bin/../lib/gcc/arm-none-eabi/12.2.1/thumb/v8-m.main+fp/hard\libc_nano.a(libc_a-reent.o)
 .ARM.attributes
                0x00000da6       0x38 c:/siliconlabs/simplicitystudio/v5/developer/toolchains/gnu_arm/12.2.rel1_2023.7/bin/../lib/gcc/arm-none-eabi/12.2.1/thumb/v8-m.main+fp/hard\libc_nano.a(libc_a-impure.o)
 .ARM.attributes
                0x00000dde       0x38 c:/siliconlabs/simplicitystudio/v5/developer/toolchains/gnu_arm/12.2.rel1_2023.7/bin/../lib/gcc/arm-none-eabi/12.2.1/thumb/v8-m.main+fp/hard\libc_nano.a(libc_a-lseekr.o)
 .ARM.attributes
                0x00000e16       0x38 c:/siliconlabs/simplicitystudio/v5/developer/toolchains/gnu_arm/12.2.rel1_2023.7/bin/../lib/gcc/arm-none-eabi/12.2.1/thumb/v8-m.main+fp/hard\libc_nano.a(libc_a-readr.o)
 .ARM.attributes
                0x00000e4e       0x38 c:/siliconlabs/simplicitystudio/v5/developer/toolchains/gnu_arm/12.2.rel1_2023.7/bin/../lib/gcc/arm-none-eabi/12.2.1/thumb/v8-m.main+fp/hard\libc_nano.a(libc_a-writer.o)
 .ARM.attributes
                0x00000e86       0x38 c:/siliconlabs/simplicitystudio/v5/developer/toolchains/gnu_arm/12.2.rel1_2023.7/bin/../lib/gcc/arm-none-eabi/12.2.1/thumb/v8-m.main+fp/hard\libc_nano.a(libc_a-init.o)
 .ARM.attributes
                0x00000ebe       0x38 c:/siliconlabs/simplicitystudio/v5/developer/toolchains/gnu_arm/12.2.rel1_2023.7/bin/../lib/gcc/arm-none-eabi/12.2.1/thumb/v8-m.main+fp/hard\libc_nano.a(libc_a-lock.o)
 .ARM.attributes
                0x00000ef6       0x38 c:/siliconlabs/simplicitystudio/v5/developer/toolchains/gnu_arm/12.2.rel1_2023.7/bin/../lib/gcc/arm-none-eabi/12.2.1/thumb/v8-m.main+fp/hard\libc_nano.a(libc_a-freer.o)
 .ARM.attributes
                0x00000f2e       0x38 c:/siliconlabs/simplicitystudio/v5/developer/toolchains/gnu_arm/12.2.rel1_2023.7/bin/../lib/gcc/arm-none-eabi/12.2.1/thumb/v8-m.main+fp/hard\libc_nano.a(libc_a-mallocr.o)
 .ARM.attributes
                0x00000f66       0x38 c:/siliconlabs/simplicitystudio/v5/developer/toolchains/gnu_arm/12.2.rel1_2023.7/bin/../lib/gcc/arm-none-eabi/12.2.1/thumb/v8-m.main+fp/hard\libc_nano.a(libc_a-mlock.o)
 .ARM.attributes
                0x00000f9e       0x38 c:/siliconlabs/simplicitystudio/v5/developer/toolchains/gnu_arm/12.2.rel1_2023.7/bin/../lib/gcc/arm-none-eabi/12.2.1/thumb/v8-m.main+fp/hard\libc_nano.a(libc_a-nano-vfprintf.o)
 .ARM.attributes
                0x00000fd6       0x38 c:/siliconlabs/simplicitystudio/v5/developer/toolchains/gnu_arm/12.2.rel1_2023.7/bin/../lib/gcc/arm-none-eabi/12.2.1/thumb/v8-m.main+fp/hard\libc_nano.a(libc_a-nano-vfprintf_i.o)
 .ARM.attributes
                0x0000100e       0x38 c:/siliconlabs/simplicitystudio/v5/developer/toolchains/gnu_arm/12.2.rel1_2023.7/bin/../lib/gcc/arm-none-eabi/12.2.1/thumb/v8-m.main+fp/hard\libc_nano.a(libc_a-fflush.o)
 .ARM.attributes
                0x00001046       0x38 c:/siliconlabs/simplicitystudio/v5/developer/toolchains/gnu_arm/12.2.rel1_2023.7/bin/../lib/gcc/arm-none-eabi/12.2.1/thumb/v8-m.main+fp/hard\libc_nano.a(libc_a-wbuf.o)
 .ARM.attributes
                0x0000107e       0x38 c:/siliconlabs/simplicitystudio/v5/developer/toolchains/gnu_arm/12.2.rel1_2023.7/bin/../lib/gcc/arm-none-eabi/12.2.1/thumb/v8-m.main+fp/hard\libc_nano.a(libc_a-wsetup.o)
 .ARM.attributes
                0x000010b6       0x38 c:/siliconlabs/simplicitystudio/v5/developer/toolchains/gnu_arm/12.2.rel1_2023.7/bin/../lib/gcc/arm-none-eabi/12.2.1/thumb/v8-m.main+fp/hard\libc_nano.a(libc_a-sbrkr.o)
 .ARM.attributes
                0x000010ee       0x38 c:/siliconlabs/simplicitystudio/v5/developer/toolchains/gnu_arm/12.2.rel1_2023.7/bin/../lib/gcc/arm-none-eabi/12.2.1/thumb/v8-m.main+fp/hard\libc_nano.a(libc_a-memchr-stub.o)
 .ARM.attributes
                0x00001126       0x38 c:/siliconlabs/simplicitystudio/v5/developer/toolchains/gnu_arm/12.2.rel1_2023.7/bin/../lib/gcc/arm-none-eabi/12.2.1/thumb/v8-m.main+fp/hard\libc_nano.a(libc_a-makebuf.o)
 .ARM.attributes
                0x0000115e       0x38 c:/siliconlabs/simplicitystudio/v5/developer/toolchains/gnu_arm/12.2.rel1_2023.7/bin/../lib/gcc/arm-none-eabi/12.2.1/thumb/v8-m.main+fp/hard\libc_nano.a(libc_a-fstatr.o)
 .ARM.attributes
                0x00001196       0x38 c:/siliconlabs/simplicitystudio/v5/developer/toolchains/gnu_arm/12.2.rel1_2023.7/bin/../lib/gcc/arm-none-eabi/12.2.1/thumb/v8-m.main+fp/hard\libc_nano.a(libc_a-isattyr.o)
 .ARM.attributes
                0x000011ce       0x38 c:/siliconlabs/simplicitystudio/v5/developer/toolchains/gnu_arm/12.2.rel1_2023.7/bin/../lib/gcc/arm-none-eabi/12.2.1/thumb/v8-m.main+fp/hard/crtend.o
 .ARM.attributes
                0x00001206       0x26 c:/siliconlabs/simplicitystudio/v5/developer/toolchains/gnu_arm/12.2.rel1_2023.7/bin/../lib/gcc/arm-none-eabi/12.2.1/thumb/v8-m.main+fp/hard/crtn.o

.comment        0x00000000       0x45
 .comment       0x00000000       0x45 ./app.o
                                 0x46 (size before relaxing)
 .comment       0x00000045       0x46 ./main.o
 .comment       0x00000045       0x46 ./autogen/sl_board_default_init.o
 .comment       0x00000045       0x46 ./autogen/sl_device_init_clocks.o
 .comment       0x00000045       0x46 ./autogen/sl_event_handler.o
 .comment       0x00000045       0x46 ./autogen/sl_power_manager_handler.o
 .comment       0x00000045       0x46 ./autogen/sl_simple_button_instances.o
 .comment       0x00000045       0x46 ./autogen/sl_simple_led_instances.o
 .comment       0x00000045       0x46 ./autogen/sl_uartdrv_init.o
 .comment       0x00000045       0x46 ./gecko_sdk_4.5.0/app/common/util/app_button_press/app_button_press.o
 .comment       0x00000045       0x46 ./gecko_sdk_4.5.0/hardware/board/src/sl_board_control_gpio.o
 .comment       0x00000045       0x46 ./gecko_sdk_4.5.0/hardware/board/src/sl_board_init.o
 .comment       0x00000045       0x46 ./gecko_sdk_4.5.0/hardware/driver/configuration_over_swo/src/sl_cos.o
 .comment       0x00000045       0x46 ./gecko_sdk_4.5.0/platform/Device/SiliconLabs/EFR32BG22/Source/startup_efr32bg22.o
 .comment       0x00000045       0x46 ./gecko_sdk_4.5.0/platform/Device/SiliconLabs/EFR32BG22/Source/system_efr32bg22.o
 .comment       0x00000045       0x46 ./gecko_sdk_4.5.0/platform/common/src/sl_assert.o
 .comment       0x00000045       0x46 ./gecko_sdk_4.5.0/platform/common/src/sl_slist.o
 .comment       0x00000045       0x46 ./gecko_sdk_4.5.0/platform/common/toolchain/src/sl_memory.o
 .comment       0x00000045       0x46 ./gecko_sdk_4.5.0/platform/driver/button/src/sl_button.o
 .comment       0x00000045       0x46 ./gecko_sdk_4.5.0/platform/driver/button/src/sl_simple_button.o
 .comment       0x00000045       0x46 ./gecko_sdk_4.5.0/platform/driver/debug/src/sl_debug_swo.o
 .comment       0x00000045       0x46 ./gecko_sdk_4.5.0/platform/driver/leddrv/src/sl_led.o
 .comment       0x00000045       0x46 ./gecko_sdk_4.5.0/platform/driver/leddrv/src/sl_simple_led.o
 .comment       0x00000045       0x46 ./gecko_sdk_4.5.0/platform/emdrv/dmadrv/src/dmadrv.o
 .comment       0x00000045       0x46 ./gecko_sdk_4.5.0/platform/emdrv/gpiointerrupt/src/gpiointerrupt.o
 .comment       0x00000045       0x46 ./gecko_sdk_4.5.0/platform/emdrv/uartdrv/src/uartdrv.o
 .comment       0x00000045       0x46 ./gecko_sdk_4.5.0/platform/emlib/src/em_cmu.o
 .comment       0x00000045       0x46 ./gecko_sdk_4.5.0/platform/emlib/src/em_core.o
 .comment       0x00000045       0x46 ./gecko_sdk_4.5.0/platform/emlib/src/em_emu.o
 .comment       0x00000045       0x46 ./gecko_sdk_4.5.0/platform/emlib/src/em_eusart.o
 .comment       0x00000045       0x46 ./gecko_sdk_4.5.0/platform/emlib/src/em_gpio.o
 .comment       0x00000045       0x46 ./gecko_sdk_4.5.0/platform/emlib/src/em_ldma.o
 .comment       0x00000045       0x46 ./gecko_sdk_4.5.0/platform/emlib/src/em_rtcc.o
 .comment       0x00000045       0x46 ./gecko_sdk_4.5.0/platform/emlib/src/em_system.o
 .comment       0x00000045       0x46 ./gecko_sdk_4.5.0/platform/emlib/src/em_usart.o
 .comment       0x00000045       0x46 ./gecko_sdk_4.5.0/platform/service/device_init/src/sl_device_init_dcdc_s2.o
 .comment       0x00000045       0x46 ./gecko_sdk_4.5.0/platform/service/device_init/src/sl_device_init_emu_s2.o
 .comment       0x00000045       0x46 ./gecko_sdk_4.5.0/platform/service/device_init/src/sl_device_init_hfxo_s2.o
 .comment       0x00000045       0x46 ./gecko_sdk_4.5.0/platform/service/device_init/src/sl_device_init_lfxo_s2.o
 .comment       0x00000045       0x46 ./gecko_sdk_4.5.0/platform/service/device_init/src/sl_device_init_nvic.o
 .comment       0x00000045       0x46 ./gecko_sdk_4.5.0/platform/service/iostream/src/sl_iostream.o
 .comment       0x00000045       0x46 ./gecko_sdk_4.5.0/platform/service/iostream/src/sl_iostream_retarget_stdio.o
 .comment       0x00000045       0x46 ./gecko_sdk_4.5.0/platform/service/power_manager/src/sl_power_manager.o
 .comment       0x00000045       0x46 ./gecko_sdk_4.5.0/platform/service/power_manager/src/sl_power_manager_hal_s2.o
 .comment       0x00000045       0x46 ./gecko_sdk_4.5.0/platform/service/sleeptimer/src/sl_sleeptimer.o
 .comment       0x00000045       0x46 ./gecko_sdk_4.5.0/platform/service/sleeptimer/src/sl_sleeptimer_hal_rtcc.o
 .comment       0x00000045       0x46 ./gecko_sdk_4.5.0/platform/service/system/src/sl_system_init.o
 .comment       0x00000045       0x46 ./gecko_sdk_4.5.0/platform/service/system/src/sl_system_process_action.o

.debug_line_str
                0x00000000      0x1c0
 .debug_line_str
                0x00000000       0xe7 c:/siliconlabs/simplicitystudio/v5/developer/toolchains/gnu_arm/12.2.rel1_2023.7/bin/../lib/gcc/arm-none-eabi/12.2.1/thumb/v8-m.main+fp/hard/crt0.o
 .debug_line_str
                0x000000e7       0xcd c:/siliconlabs/simplicitystudio/v5/developer/toolchains/gnu_arm/12.2.rel1_2023.7/bin/../lib/gcc/arm-none-eabi/12.2.1/thumb/v8-m.main+fp/hard\libgcc.a(_aeabi_uldivmod.o)
 .debug_line_str
                0x000001b4        0xc c:/siliconlabs/simplicitystudio/v5/developer/toolchains/gnu_arm/12.2.rel1_2023.7/bin/../lib/gcc/arm-none-eabi/12.2.1/thumb/v8-m.main+fp/hard\libgcc.a(_dvmd_tls.o)
                                 0xd1 (size before relaxing)

.debug_info     0x00000000    0x4270b
 .debug_info    0x00000000     0x17b2 ./app.o
 .debug_info    0x000017b2       0xf8 ./main.o
 .debug_info    0x000018aa       0xc5 ./autogen/sl_board_default_init.o
 .debug_info    0x0000196f     0x11e8 ./autogen/sl_device_init_clocks.o
 .debug_info    0x00002b57      0xfc1 ./autogen/sl_event_handler.o
 .debug_info    0x00003b18      0x201 ./autogen/sl_power_manager_handler.o
 .debug_info    0x00003d19      0x390 ./autogen/sl_simple_button_instances.o
 .debug_info    0x000040a9      0x2fa ./autogen/sl_simple_led_instances.o
 .debug_info    0x000043a3     0x167e ./autogen/sl_uartdrv_init.o
 .debug_info    0x00005a21      0x537 ./gecko_sdk_4.5.0/app/common/util/app_button_press/app_button_press.o
 .debug_info    0x00005f58      0x3c2 ./gecko_sdk_4.5.0/hardware/board/src/sl_board_control_gpio.o
 .debug_info    0x0000631a      0x2ae ./gecko_sdk_4.5.0/hardware/board/src/sl_board_init.o
 .debug_info    0x000065c8     0x1744 ./gecko_sdk_4.5.0/hardware/driver/configuration_over_swo/src/sl_cos.o
 .debug_info    0x00007d0c      0x3a9 ./gecko_sdk_4.5.0/platform/Device/SiliconLabs/EFR32BG22/Source/startup_efr32bg22.o
 .debug_info    0x000080b5     0x201d ./gecko_sdk_4.5.0/platform/Device/SiliconLabs/EFR32BG22/Source/system_efr32bg22.o
 .debug_info    0x0000a0d2       0x86 ./gecko_sdk_4.5.0/platform/common/src/sl_assert.o
 .debug_info    0x0000a158      0x3fa ./gecko_sdk_4.5.0/platform/common/src/sl_slist.o
 .debug_info    0x0000a552      0x205 ./gecko_sdk_4.5.0/platform/common/toolchain/src/sl_memory.o
 .debug_info    0x0000a757      0x2d6 ./gecko_sdk_4.5.0/platform/driver/button/src/sl_button.o
 .debug_info    0x0000aa2d     0x1bc5 ./gecko_sdk_4.5.0/platform/driver/button/src/sl_simple_button.o
 .debug_info    0x0000c5f2     0x2148 ./gecko_sdk_4.5.0/platform/driver/debug/src/sl_debug_swo.o
 .debug_info    0x0000e73a      0x25e ./gecko_sdk_4.5.0/platform/driver/leddrv/src/sl_led.o
 .debug_info    0x0000e998     0x1870 ./gecko_sdk_4.5.0/platform/driver/leddrv/src/sl_simple_led.o
 .debug_info    0x00010208     0x1eb9 ./gecko_sdk_4.5.0/platform/emdrv/dmadrv/src/dmadrv.o
 .debug_info    0x000120c1     0x1cb7 ./gecko_sdk_4.5.0/platform/emdrv/gpiointerrupt/src/gpiointerrupt.o
 .debug_info    0x00013d78     0x6e1d ./gecko_sdk_4.5.0/platform/emdrv/uartdrv/src/uartdrv.o
 .debug_info    0x0001ab95     0x78d0 ./gecko_sdk_4.5.0/platform/emlib/src/em_cmu.o
 .debug_info    0x00022465     0x13b2 ./gecko_sdk_4.5.0/platform/emlib/src/em_core.o
 .debug_info    0x00023817     0x4bf1 ./gecko_sdk_4.5.0/platform/emlib/src/em_emu.o
 .debug_info    0x00028408     0x44a6 ./gecko_sdk_4.5.0/platform/emlib/src/em_eusart.o
 .debug_info    0x0002c8ae     0x21a4 ./gecko_sdk_4.5.0/platform/emlib/src/em_gpio.o
 .debug_info    0x0002ea52     0x1f1f ./gecko_sdk_4.5.0/platform/emlib/src/em_ldma.o
 .debug_info    0x00030971     0x1f35 ./gecko_sdk_4.5.0/platform/emlib/src/em_rtcc.o
 .debug_info    0x000328a6     0x1b6a ./gecko_sdk_4.5.0/platform/emlib/src/em_system.o
 .debug_info    0x00034410     0x4071 ./gecko_sdk_4.5.0/platform/emlib/src/em_usart.o
 .debug_info    0x00038481      0x2c7 ./gecko_sdk_4.5.0/platform/service/device_init/src/sl_device_init_dcdc_s2.o
 .debug_info    0x00038748      0x9b5 ./gecko_sdk_4.5.0/platform/service/device_init/src/sl_device_init_emu_s2.o
 .debug_info    0x000390fd      0x898 ./gecko_sdk_4.5.0/platform/service/device_init/src/sl_device_init_hfxo_s2.o
 .debug_info    0x00039995      0x29e ./gecko_sdk_4.5.0/platform/service/device_init/src/sl_device_init_lfxo_s2.o
 .debug_info    0x00039c33      0x7ff ./gecko_sdk_4.5.0/platform/service/device_init/src/sl_device_init_nvic.o
 .debug_info    0x0003a432      0x64c ./gecko_sdk_4.5.0/platform/service/iostream/src/sl_iostream.o
 .debug_info    0x0003aa7e      0x68b ./gecko_sdk_4.5.0/platform/service/iostream/src/sl_iostream_retarget_stdio.o
 .debug_info    0x0003b109     0x1633 ./gecko_sdk_4.5.0/platform/service/power_manager/src/sl_power_manager.o
 .debug_info    0x0003c73c     0x200c ./gecko_sdk_4.5.0/platform/service/power_manager/src/sl_power_manager_hal_s2.o
 .debug_info    0x0003e748     0x1abd ./gecko_sdk_4.5.0/platform/service/sleeptimer/src/sl_sleeptimer.o
 .debug_info    0x00040205     0x23cc ./gecko_sdk_4.5.0/platform/service/sleeptimer/src/sl_sleeptimer_hal_rtcc.o
 .debug_info    0x000425d1       0xa7 ./gecko_sdk_4.5.0/platform/service/system/src/sl_system_init.o
 .debug_info    0x00042678       0x93 ./gecko_sdk_4.5.0/platform/service/system/src/sl_system_process_action.o

.debug_abbrev   0x00000000     0x7557
 .debug_abbrev  0x00000000      0x258 ./app.o
 .debug_abbrev  0x00000258       0x79 ./main.o
 .debug_abbrev  0x000002d1       0x87 ./autogen/sl_board_default_init.o
 .debug_abbrev  0x00000358       0xde ./autogen/sl_device_init_clocks.o
 .debug_abbrev  0x00000436      0x1be ./autogen/sl_event_handler.o
 .debug_abbrev  0x000005f4       0xeb ./autogen/sl_power_manager_handler.o
 .debug_abbrev  0x000006df      0x17d ./autogen/sl_simple_button_instances.o
 .debug_abbrev  0x0000085c      0x150 ./autogen/sl_simple_led_instances.o
 .debug_abbrev  0x000009ac      0x28b ./autogen/sl_uartdrv_init.o
 .debug_abbrev  0x00000c37      0x24f ./gecko_sdk_4.5.0/app/common/util/app_button_press/app_button_press.o
 .debug_abbrev  0x00000e86      0x185 ./gecko_sdk_4.5.0/hardware/board/src/sl_board_control_gpio.o
 .debug_abbrev  0x0000100b      0x10b ./gecko_sdk_4.5.0/hardware/board/src/sl_board_init.o
 .debug_abbrev  0x00001116      0x382 ./gecko_sdk_4.5.0/hardware/driver/configuration_over_swo/src/sl_cos.o
 .debug_abbrev  0x00001498      0x22e ./gecko_sdk_4.5.0/platform/Device/SiliconLabs/EFR32BG22/Source/startup_efr32bg22.o
 .debug_abbrev  0x000016c6      0x34d ./gecko_sdk_4.5.0/platform/Device/SiliconLabs/EFR32BG22/Source/system_efr32bg22.o
 .debug_abbrev  0x00001a13       0x6c ./gecko_sdk_4.5.0/platform/common/src/sl_assert.o
 .debug_abbrev  0x00001a7f      0x169 ./gecko_sdk_4.5.0/platform/common/src/sl_slist.o
 .debug_abbrev  0x00001be8      0x11e ./gecko_sdk_4.5.0/platform/common/toolchain/src/sl_memory.o
 .debug_abbrev  0x00001d06      0x131 ./gecko_sdk_4.5.0/platform/driver/button/src/sl_button.o
 .debug_abbrev  0x00001e37      0x362 ./gecko_sdk_4.5.0/platform/driver/button/src/sl_simple_button.o
 .debug_abbrev  0x00002199      0x2f6 ./gecko_sdk_4.5.0/platform/driver/debug/src/sl_debug_swo.o
 .debug_abbrev  0x0000248f       0xfd ./gecko_sdk_4.5.0/platform/driver/leddrv/src/sl_led.o
 .debug_abbrev  0x0000258c      0x2e5 ./gecko_sdk_4.5.0/platform/driver/leddrv/src/sl_simple_led.o
 .debug_abbrev  0x00002871      0x3d4 ./gecko_sdk_4.5.0/platform/emdrv/dmadrv/src/dmadrv.o
 .debug_abbrev  0x00002c45      0x3c0 ./gecko_sdk_4.5.0/platform/emdrv/gpiointerrupt/src/gpiointerrupt.o
 .debug_abbrev  0x00003005      0x5e0 ./gecko_sdk_4.5.0/platform/emdrv/uartdrv/src/uartdrv.o
 .debug_abbrev  0x000035e5      0x5cf ./gecko_sdk_4.5.0/platform/emlib/src/em_cmu.o
 .debug_abbrev  0x00003bb4      0x32f ./gecko_sdk_4.5.0/platform/emlib/src/em_core.o
 .debug_abbrev  0x00003ee3      0x560 ./gecko_sdk_4.5.0/platform/emlib/src/em_emu.o
 .debug_abbrev  0x00004443      0x40f ./gecko_sdk_4.5.0/platform/emlib/src/em_eusart.o
 .debug_abbrev  0x00004852      0x336 ./gecko_sdk_4.5.0/platform/emlib/src/em_gpio.o
 .debug_abbrev  0x00004b88      0x3f2 ./gecko_sdk_4.5.0/platform/emlib/src/em_ldma.o
 .debug_abbrev  0x00004f7a      0x268 ./gecko_sdk_4.5.0/platform/emlib/src/em_rtcc.o
 .debug_abbrev  0x000051e2      0x2a6 ./gecko_sdk_4.5.0/platform/emlib/src/em_system.o
 .debug_abbrev  0x00005488      0x341 ./gecko_sdk_4.5.0/platform/emlib/src/em_usart.o
 .debug_abbrev  0x000057c9       0xf8 ./gecko_sdk_4.5.0/platform/service/device_init/src/sl_device_init_dcdc_s2.o
 .debug_abbrev  0x000058c1      0x149 ./gecko_sdk_4.5.0/platform/service/device_init/src/sl_device_init_emu_s2.o
 .debug_abbrev  0x00005a0a      0x196 ./gecko_sdk_4.5.0/platform/service/device_init/src/sl_device_init_hfxo_s2.o
 .debug_abbrev  0x00005ba0      0x105 ./gecko_sdk_4.5.0/platform/service/device_init/src/sl_device_init_lfxo_s2.o
 .debug_abbrev  0x00005ca5      0x14b ./gecko_sdk_4.5.0/platform/service/device_init/src/sl_device_init_nvic.o
 .debug_abbrev  0x00005df0      0x2a5 ./gecko_sdk_4.5.0/platform/service/iostream/src/sl_iostream.o
 .debug_abbrev  0x00006095      0x1f9 ./gecko_sdk_4.5.0/platform/service/iostream/src/sl_iostream_retarget_stdio.o
 .debug_abbrev  0x0000628e      0x4b4 ./gecko_sdk_4.5.0/platform/service/power_manager/src/sl_power_manager.o
 .debug_abbrev  0x00006742      0x3e5 ./gecko_sdk_4.5.0/platform/service/power_manager/src/sl_power_manager_hal_s2.o
 .debug_abbrev  0x00006b27      0x495 ./gecko_sdk_4.5.0/platform/service/sleeptimer/src/sl_sleeptimer.o
 .debug_abbrev  0x00006fbc      0x4e3 ./gecko_sdk_4.5.0/platform/service/sleeptimer/src/sl_sleeptimer_hal_rtcc.o
 .debug_abbrev  0x0000749f       0x5c ./gecko_sdk_4.5.0/platform/service/system/src/sl_system_init.o
 .debug_abbrev  0x000074fb       0x5c ./gecko_sdk_4.5.0/platform/service/system/src/sl_system_process_action.o

.debug_loc      0x00000000    0x10ba0
 .debug_loc     0x00000000      0x167 ./app.o
 .debug_loc     0x00000167       0x20 ./main.o
 .debug_loc     0x00000187       0x20 ./autogen/sl_device_init_clocks.o
 .debug_loc     0x000001a7       0xa1 ./autogen/sl_event_handler.o
 .debug_loc     0x00000248      0x10d ./autogen/sl_power_manager_handler.o
 .debug_loc     0x00000355       0xa3 ./autogen/sl_uartdrv_init.o
 .debug_loc     0x000003f8      0x1b9 ./gecko_sdk_4.5.0/app/common/util/app_button_press/app_button_press.o
 .debug_loc     0x000005b1      0x20a ./gecko_sdk_4.5.0/hardware/board/src/sl_board_control_gpio.o
 .debug_loc     0x000007bb       0x2c ./gecko_sdk_4.5.0/hardware/board/src/sl_board_init.o
 .debug_loc     0x000007e7      0x427 ./gecko_sdk_4.5.0/hardware/driver/configuration_over_swo/src/sl_cos.o
 .debug_loc     0x00000c0e       0x8e ./gecko_sdk_4.5.0/platform/Device/SiliconLabs/EFR32BG22/Source/startup_efr32bg22.o
 .debug_loc     0x00000c9c      0x22a ./gecko_sdk_4.5.0/platform/Device/SiliconLabs/EFR32BG22/Source/system_efr32bg22.o
 .debug_loc     0x00000ec6       0x2a ./gecko_sdk_4.5.0/platform/common/src/sl_assert.o
 .debug_loc     0x00000ef0      0x3c3 ./gecko_sdk_4.5.0/platform/common/src/sl_slist.o
 .debug_loc     0x000012b3       0xa9 ./gecko_sdk_4.5.0/platform/common/toolchain/src/sl_memory.o
 .debug_loc     0x0000135c      0x11a ./gecko_sdk_4.5.0/platform/driver/button/src/sl_button.o
 .debug_loc     0x00001476      0x580 ./gecko_sdk_4.5.0/platform/driver/button/src/sl_simple_button.o
 .debug_loc     0x000019f6      0x24d ./gecko_sdk_4.5.0/platform/driver/debug/src/sl_debug_swo.o
 .debug_loc     0x00001c43       0xb9 ./gecko_sdk_4.5.0/platform/driver/leddrv/src/sl_led.o
 .debug_loc     0x00001cfc      0x367 ./gecko_sdk_4.5.0/platform/driver/leddrv/src/sl_simple_led.o
 .debug_loc     0x00002063     0x1105 ./gecko_sdk_4.5.0/platform/emdrv/dmadrv/src/dmadrv.o
 .debug_loc     0x00003168      0x5a0 ./gecko_sdk_4.5.0/platform/emdrv/gpiointerrupt/src/gpiointerrupt.o
 .debug_loc     0x00003708     0x28a9 ./gecko_sdk_4.5.0/platform/emdrv/uartdrv/src/uartdrv.o
 .debug_loc     0x00005fb1     0x382a ./gecko_sdk_4.5.0/platform/emlib/src/em_cmu.o
 .debug_loc     0x000097db      0x926 ./gecko_sdk_4.5.0/platform/emlib/src/em_core.o
 .debug_loc     0x0000a101      0x936 ./gecko_sdk_4.5.0/platform/emlib/src/em_emu.o
 .debug_loc     0x0000aa37      0xd47 ./gecko_sdk_4.5.0/platform/emlib/src/em_eusart.o
 .debug_loc     0x0000b77e      0x941 ./gecko_sdk_4.5.0/platform/emlib/src/em_gpio.o
 .debug_loc     0x0000c0bf      0x5db ./gecko_sdk_4.5.0/platform/emlib/src/em_ldma.o
 .debug_loc     0x0000c69a      0x13c ./gecko_sdk_4.5.0/platform/emlib/src/em_rtcc.o
 .debug_loc     0x0000c7d6      0x146 ./gecko_sdk_4.5.0/platform/emlib/src/em_system.o
 .debug_loc     0x0000c91c      0xaaa ./gecko_sdk_4.5.0/platform/emlib/src/em_usart.o
 .debug_loc     0x0000d3c6       0x2c ./gecko_sdk_4.5.0/platform/service/device_init/src/sl_device_init_dcdc_s2.o
 .debug_loc     0x0000d3f2       0x2c ./gecko_sdk_4.5.0/platform/service/device_init/src/sl_device_init_emu_s2.o
 .debug_loc     0x0000d41e       0xbd ./gecko_sdk_4.5.0/platform/service/device_init/src/sl_device_init_hfxo_s2.o
 .debug_loc     0x0000d4db       0x38 ./gecko_sdk_4.5.0/platform/service/device_init/src/sl_device_init_lfxo_s2.o
 .debug_loc     0x0000d513       0x79 ./gecko_sdk_4.5.0/platform/service/device_init/src/sl_device_init_nvic.o
 .debug_loc     0x0000d58c      0x5fe ./gecko_sdk_4.5.0/platform/service/iostream/src/sl_iostream.o
 .debug_loc     0x0000db8a      0x217 ./gecko_sdk_4.5.0/platform/service/iostream/src/sl_iostream_retarget_stdio.o
 .debug_loc     0x0000dda1      0xb1f ./gecko_sdk_4.5.0/platform/service/power_manager/src/sl_power_manager.o
 .debug_loc     0x0000e8c0      0x30e ./gecko_sdk_4.5.0/platform/service/power_manager/src/sl_power_manager_hal_s2.o
 .debug_loc     0x0000ebce     0x19c0 ./gecko_sdk_4.5.0/platform/service/sleeptimer/src/sl_sleeptimer.o
 .debug_loc     0x0001058e      0x5ba ./gecko_sdk_4.5.0/platform/service/sleeptimer/src/sl_sleeptimer_hal_rtcc.o
 .debug_loc     0x00010b48       0x2c ./gecko_sdk_4.5.0/platform/service/system/src/sl_system_init.o
 .debug_loc     0x00010b74       0x2c ./gecko_sdk_4.5.0/platform/service/system/src/sl_system_process_action.o

.debug_aranges  0x00000000     0x1380
 .debug_aranges
                0x00000000       0x28 ./app.o
 .debug_aranges
                0x00000028       0x20 ./main.o
 .debug_aranges
                0x00000048       0x20 ./autogen/sl_board_default_init.o
 .debug_aranges
                0x00000068       0x20 ./autogen/sl_device_init_clocks.o
 .debug_aranges
                0x00000088       0x68 ./autogen/sl_event_handler.o
 .debug_aranges
                0x000000f0       0x38 ./autogen/sl_power_manager_handler.o
 .debug_aranges
                0x00000128       0x28 ./autogen/sl_simple_button_instances.o
 .debug_aranges
                0x00000150       0x20 ./autogen/sl_simple_led_instances.o
 .debug_aranges
                0x00000170       0x30 ./autogen/sl_uartdrv_init.o
 .debug_aranges
                0x000001a0       0x58 ./gecko_sdk_4.5.0/app/common/util/app_button_press/app_button_press.o
 .debug_aranges
                0x000001f8       0x70 ./gecko_sdk_4.5.0/hardware/board/src/sl_board_control_gpio.o
 .debug_aranges
                0x00000268       0x28 ./gecko_sdk_4.5.0/hardware/board/src/sl_board_init.o
 .debug_aranges
                0x00000290       0x38 ./gecko_sdk_4.5.0/hardware/driver/configuration_over_swo/src/sl_cos.o
 .debug_aranges
                0x000002c8       0x30 ./gecko_sdk_4.5.0/platform/Device/SiliconLabs/EFR32BG22/Source/startup_efr32bg22.o
 .debug_aranges
                0x000002f8       0x90 ./gecko_sdk_4.5.0/platform/Device/SiliconLabs/EFR32BG22/Source/system_efr32bg22.o
 .debug_aranges
                0x00000388       0x20 ./gecko_sdk_4.5.0/platform/common/src/sl_assert.o
 .debug_aranges
                0x000003a8       0x50 ./gecko_sdk_4.5.0/platform/common/src/sl_slist.o
 .debug_aranges
                0x000003f8       0x30 ./gecko_sdk_4.5.0/platform/common/toolchain/src/sl_memory.o
 .debug_aranges
                0x00000428       0x48 ./gecko_sdk_4.5.0/platform/driver/button/src/sl_button.o
 .debug_aranges
                0x00000470       0x50 ./gecko_sdk_4.5.0/platform/driver/button/src/sl_simple_button.o
 .debug_aranges
                0x000004c0       0x48 ./gecko_sdk_4.5.0/platform/driver/debug/src/sl_debug_swo.o
 .debug_aranges
                0x00000508       0x40 ./gecko_sdk_4.5.0/platform/driver/leddrv/src/sl_led.o
 .debug_aranges
                0x00000548       0x50 ./gecko_sdk_4.5.0/platform/driver/leddrv/src/sl_simple_led.o
 .debug_aranges
                0x00000598       0xa8 ./gecko_sdk_4.5.0/platform/emdrv/dmadrv/src/dmadrv.o
 .debug_aranges
                0x00000640       0x50 ./gecko_sdk_4.5.0/platform/emdrv/gpiointerrupt/src/gpiointerrupt.o
 .debug_aranges
                0x00000690      0x188 ./gecko_sdk_4.5.0/platform/emdrv/uartdrv/src/uartdrv.o
 .debug_aranges
                0x00000818      0x1b8 ./gecko_sdk_4.5.0/platform/emlib/src/em_cmu.o
 .debug_aranges
                0x000009d0       0xe8 ./gecko_sdk_4.5.0/platform/emlib/src/em_core.o
 .debug_aranges
                0x00000ab8      0x130 ./gecko_sdk_4.5.0/platform/emlib/src/em_emu.o
 .debug_aranges
                0x00000be8       0xa0 ./gecko_sdk_4.5.0/platform/emlib/src/em_eusart.o
 .debug_aranges
                0x00000c88       0x68 ./gecko_sdk_4.5.0/platform/emlib/src/em_gpio.o
 .debug_aranges
                0x00000cf0       0x50 ./gecko_sdk_4.5.0/platform/emlib/src/em_ldma.o
 .debug_aranges
                0x00000d40       0x48 ./gecko_sdk_4.5.0/platform/emlib/src/em_rtcc.o
 .debug_aranges
                0x00000d88       0x78 ./gecko_sdk_4.5.0/platform/emlib/src/em_system.o
 .debug_aranges
                0x00000e00       0xb8 ./gecko_sdk_4.5.0/platform/emlib/src/em_usart.o
 .debug_aranges
                0x00000eb8       0x20 ./gecko_sdk_4.5.0/platform/service/device_init/src/sl_device_init_dcdc_s2.o
 .debug_aranges
                0x00000ed8       0x20 ./gecko_sdk_4.5.0/platform/service/device_init/src/sl_device_init_emu_s2.o
 .debug_aranges
                0x00000ef8       0x20 ./gecko_sdk_4.5.0/platform/service/device_init/src/sl_device_init_hfxo_s2.o
 .debug_aranges
                0x00000f18       0x20 ./gecko_sdk_4.5.0/platform/service/device_init/src/sl_device_init_lfxo_s2.o
 .debug_aranges
                0x00000f38       0x20 ./gecko_sdk_4.5.0/platform/service/device_init/src/sl_device_init_nvic.o
 .debug_aranges
                0x00000f58       0x58 ./gecko_sdk_4.5.0/platform/service/iostream/src/sl_iostream.o
 .debug_aranges
                0x00000fb0       0x60 ./gecko_sdk_4.5.0/platform/service/iostream/src/sl_iostream_retarget_stdio.o
 .debug_aranges
                0x00001010       0xf0 ./gecko_sdk_4.5.0/platform/service/power_manager/src/sl_power_manager.o
 .debug_aranges
                0x00001100       0x90 ./gecko_sdk_4.5.0/platform/service/power_manager/src/sl_power_manager_hal_s2.o
 .debug_aranges
                0x00001190      0x120 ./gecko_sdk_4.5.0/platform/service/sleeptimer/src/sl_sleeptimer.o
 .debug_aranges
                0x000012b0       0x90 ./gecko_sdk_4.5.0/platform/service/sleeptimer/src/sl_sleeptimer_hal_rtcc.o
 .debug_aranges
                0x00001340       0x20 ./gecko_sdk_4.5.0/platform/service/system/src/sl_system_init.o
 .debug_aranges
                0x00001360       0x20 ./gecko_sdk_4.5.0/platform/service/system/src/sl_system_process_action.o

.debug_ranges   0x00000000     0x1be8
 .debug_ranges  0x00000000       0x98 ./app.o
 .debug_ranges  0x00000098       0x10 ./main.o
 .debug_ranges  0x000000a8       0x10 ./autogen/sl_board_default_init.o
 .debug_ranges  0x000000b8       0x10 ./autogen/sl_device_init_clocks.o
 .debug_ranges  0x000000c8       0x58 ./autogen/sl_event_handler.o
 .debug_ranges  0x00000120       0x28 ./autogen/sl_power_manager_handler.o
 .debug_ranges  0x00000148       0x18 ./autogen/sl_simple_button_instances.o
 .debug_ranges  0x00000160       0x10 ./autogen/sl_simple_led_instances.o
 .debug_ranges  0x00000170       0x20 ./autogen/sl_uartdrv_init.o
 .debug_ranges  0x00000190       0x48 ./gecko_sdk_4.5.0/app/common/util/app_button_press/app_button_press.o
 .debug_ranges  0x000001d8       0x60 ./gecko_sdk_4.5.0/hardware/board/src/sl_board_control_gpio.o
 .debug_ranges  0x00000238       0x18 ./gecko_sdk_4.5.0/hardware/board/src/sl_board_init.o
 .debug_ranges  0x00000250       0x70 ./gecko_sdk_4.5.0/hardware/driver/configuration_over_swo/src/sl_cos.o
 .debug_ranges  0x000002c0       0x88 ./gecko_sdk_4.5.0/platform/Device/SiliconLabs/EFR32BG22/Source/startup_efr32bg22.o
 .debug_ranges  0x00000348       0x98 ./gecko_sdk_4.5.0/platform/Device/SiliconLabs/EFR32BG22/Source/system_efr32bg22.o
 .debug_ranges  0x000003e0       0x10 ./gecko_sdk_4.5.0/platform/common/src/sl_assert.o
 .debug_ranges  0x000003f0       0x58 ./gecko_sdk_4.5.0/platform/common/src/sl_slist.o
 .debug_ranges  0x00000448       0x20 ./gecko_sdk_4.5.0/platform/common/toolchain/src/sl_memory.o
 .debug_ranges  0x00000468       0x38 ./gecko_sdk_4.5.0/platform/driver/button/src/sl_button.o
 .debug_ranges  0x000004a0       0x60 ./gecko_sdk_4.5.0/platform/driver/button/src/sl_simple_button.o
 .debug_ranges  0x00000500       0x50 ./gecko_sdk_4.5.0/platform/driver/debug/src/sl_debug_swo.o
 .debug_ranges  0x00000550       0x30 ./gecko_sdk_4.5.0/platform/driver/leddrv/src/sl_led.o
 .debug_ranges  0x00000580       0x40 ./gecko_sdk_4.5.0/platform/driver/leddrv/src/sl_simple_led.o
 .debug_ranges  0x000005c0       0xb0 ./gecko_sdk_4.5.0/platform/emdrv/dmadrv/src/dmadrv.o
 .debug_ranges  0x00000670       0xf8 ./gecko_sdk_4.5.0/platform/emdrv/gpiointerrupt/src/gpiointerrupt.o
 .debug_ranges  0x00000768      0x2a8 ./gecko_sdk_4.5.0/platform/emdrv/uartdrv/src/uartdrv.o
 .debug_ranges  0x00000a10      0x338 ./gecko_sdk_4.5.0/platform/emlib/src/em_cmu.o
 .debug_ranges  0x00000d48      0x1a0 ./gecko_sdk_4.5.0/platform/emlib/src/em_core.o
 .debug_ranges  0x00000ee8      0x2b8 ./gecko_sdk_4.5.0/platform/emlib/src/em_emu.o
 .debug_ranges  0x000011a0      0x120 ./gecko_sdk_4.5.0/platform/emlib/src/em_eusart.o
 .debug_ranges  0x000012c0       0x88 ./gecko_sdk_4.5.0/platform/emlib/src/em_gpio.o
 .debug_ranges  0x00001348       0x88 ./gecko_sdk_4.5.0/platform/emlib/src/em_ldma.o
 .debug_ranges  0x000013d0       0x68 ./gecko_sdk_4.5.0/platform/emlib/src/em_rtcc.o
 .debug_ranges  0x00001438       0x80 ./gecko_sdk_4.5.0/platform/emlib/src/em_system.o
 .debug_ranges  0x000014b8      0x108 ./gecko_sdk_4.5.0/platform/emlib/src/em_usart.o
 .debug_ranges  0x000015c0       0x10 ./gecko_sdk_4.5.0/platform/service/device_init/src/sl_device_init_dcdc_s2.o
 .debug_ranges  0x000015d0       0x10 ./gecko_sdk_4.5.0/platform/service/device_init/src/sl_device_init_emu_s2.o
 .debug_ranges  0x000015e0       0x10 ./gecko_sdk_4.5.0/platform/service/device_init/src/sl_device_init_hfxo_s2.o
 .debug_ranges  0x000015f0       0x10 ./gecko_sdk_4.5.0/platform/service/device_init/src/sl_device_init_lfxo_s2.o
 .debug_ranges  0x00001600       0x58 ./gecko_sdk_4.5.0/platform/service/device_init/src/sl_device_init_nvic.o
 .debug_ranges  0x00001658       0x48 ./gecko_sdk_4.5.0/platform/service/iostream/src/sl_iostream.o
 .debug_ranges  0x000016a0       0x50 ./gecko_sdk_4.5.0/platform/service/iostream/src/sl_iostream_retarget_stdio.o
 .debug_ranges  0x000016f0      0x148 ./gecko_sdk_4.5.0/platform/service/power_manager/src/sl_power_manager.o
 .debug_ranges  0x00001838       0xc8 ./gecko_sdk_4.5.0/platform/service/power_manager/src/sl_power_manager_hal_s2.o
 .debug_ranges  0x00001900      0x1a0 ./gecko_sdk_4.5.0/platform/service/sleeptimer/src/sl_sleeptimer.o
 .debug_ranges  0x00001aa0      0x128 ./gecko_sdk_4.5.0/platform/service/sleeptimer/src/sl_sleeptimer_hal_rtcc.o
 .debug_ranges  0x00001bc8       0x10 ./gecko_sdk_4.5.0/platform/service/system/src/sl_system_init.o
 .debug_ranges  0x00001bd8       0x10 ./gecko_sdk_4.5.0/platform/service/system/src/sl_system_process_action.o

.debug_line     0x00000000    0x1557a
 .debug_line    0x00000000      0x478 ./app.o
 .debug_line    0x00000478      0x157 ./main.o
 .debug_line    0x000005cf      0x204 ./autogen/sl_board_default_init.o
 .debug_line    0x000007d3      0x2b0 ./autogen/sl_device_init_clocks.o
 .debug_line    0x00000a83      0x7bb ./autogen/sl_event_handler.o
 .debug_line    0x0000123e      0x355 ./autogen/sl_power_manager_handler.o
 .debug_line    0x00001593      0x287 ./autogen/sl_simple_button_instances.o
 .debug_line    0x0000181a      0x26a ./autogen/sl_simple_led_instances.o
 .debug_line    0x00001a84      0x510 ./autogen/sl_uartdrv_init.o
 .debug_line    0x00001f94      0x5a8 ./gecko_sdk_4.5.0/app/common/util/app_button_press/app_button_press.o
 .debug_line    0x0000253c      0x3f5 ./gecko_sdk_4.5.0/hardware/board/src/sl_board_control_gpio.o
 .debug_line    0x00002931      0x1f8 ./gecko_sdk_4.5.0/hardware/board/src/sl_board_init.o
 .debug_line    0x00002b29      0x81c ./gecko_sdk_4.5.0/hardware/driver/configuration_over_swo/src/sl_cos.o
 .debug_line    0x00003345      0x328 ./gecko_sdk_4.5.0/platform/Device/SiliconLabs/EFR32BG22/Source/startup_efr32bg22.o
 .debug_line    0x0000366d      0x596 ./gecko_sdk_4.5.0/platform/Device/SiliconLabs/EFR32BG22/Source/system_efr32bg22.o
 .debug_line    0x00003c03       0xa5 ./gecko_sdk_4.5.0/platform/common/src/sl_assert.o
 .debug_line    0x00003ca8      0x35c ./gecko_sdk_4.5.0/platform/common/src/sl_slist.o
 .debug_line    0x00004004      0x2f2 ./gecko_sdk_4.5.0/platform/common/toolchain/src/sl_memory.o
 .debug_line    0x000042f6      0x30b ./gecko_sdk_4.5.0/platform/driver/button/src/sl_button.o
 .debug_line    0x00004601      0x629 ./gecko_sdk_4.5.0/platform/driver/button/src/sl_simple_button.o
 .debug_line    0x00004c2a      0x630 ./gecko_sdk_4.5.0/platform/driver/debug/src/sl_debug_swo.o
 .debug_line    0x0000525a      0x2a5 ./gecko_sdk_4.5.0/platform/driver/leddrv/src/sl_led.o
 .debug_line    0x000054ff      0x4fb ./gecko_sdk_4.5.0/platform/driver/leddrv/src/sl_simple_led.o
 .debug_line    0x000059fa      0xabc ./gecko_sdk_4.5.0/platform/emdrv/dmadrv/src/dmadrv.o
 .debug_line    0x000064b6      0x772 ./gecko_sdk_4.5.0/platform/emdrv/gpiointerrupt/src/gpiointerrupt.o
 .debug_line    0x00006c28     0x260b ./gecko_sdk_4.5.0/platform/emdrv/uartdrv/src/uartdrv.o
 .debug_line    0x00009233     0x2990 ./gecko_sdk_4.5.0/platform/emlib/src/em_cmu.o
 .debug_line    0x0000bbc3      0xa76 ./gecko_sdk_4.5.0/platform/emlib/src/em_core.o
 .debug_line    0x0000c639      0xf0a ./gecko_sdk_4.5.0/platform/emlib/src/em_emu.o
 .debug_line    0x0000d543      0xd3a ./gecko_sdk_4.5.0/platform/emlib/src/em_eusart.o
 .debug_line    0x0000e27d      0x6cb ./gecko_sdk_4.5.0/platform/emlib/src/em_gpio.o
 .debug_line    0x0000e948      0x778 ./gecko_sdk_4.5.0/platform/emlib/src/em_ldma.o
 .debug_line    0x0000f0c0      0x553 ./gecko_sdk_4.5.0/platform/emlib/src/em_rtcc.o
 .debug_line    0x0000f613      0x4b1 ./gecko_sdk_4.5.0/platform/emlib/src/em_system.o
 .debug_line    0x0000fac4      0xd01 ./gecko_sdk_4.5.0/platform/emlib/src/em_usart.o
 .debug_line    0x000107c5      0x253 ./gecko_sdk_4.5.0/platform/service/device_init/src/sl_device_init_dcdc_s2.o
 .debug_line    0x00010a18      0x2de ./gecko_sdk_4.5.0/platform/service/device_init/src/sl_device_init_emu_s2.o
 .debug_line    0x00010cf6      0x32e ./gecko_sdk_4.5.0/platform/service/device_init/src/sl_device_init_hfxo_s2.o
 .debug_line    0x00011024      0x264 ./gecko_sdk_4.5.0/platform/service/device_init/src/sl_device_init_lfxo_s2.o
 .debug_line    0x00011288      0x346 ./gecko_sdk_4.5.0/platform/service/device_init/src/sl_device_init_nvic.o
 .debug_line    0x000115ce      0x59f ./gecko_sdk_4.5.0/platform/service/iostream/src/sl_iostream.o
 .debug_line    0x00011b6d      0x45e ./gecko_sdk_4.5.0/platform/service/iostream/src/sl_iostream_retarget_stdio.o
 .debug_line    0x00011fcb      0xea9 ./gecko_sdk_4.5.0/platform/service/power_manager/src/sl_power_manager.o
 .debug_line    0x00012e74      0xa3f ./gecko_sdk_4.5.0/platform/service/power_manager/src/sl_power_manager_hal_s2.o
 .debug_line    0x000138b3     0x1168 ./gecko_sdk_4.5.0/platform/service/sleeptimer/src/sl_sleeptimer.o
 .debug_line    0x00014a1b      0x950 ./gecko_sdk_4.5.0/platform/service/sleeptimer/src/sl_sleeptimer_hal_rtcc.o
 .debug_line    0x0001536b      0x103 ./gecko_sdk_4.5.0/platform/service/system/src/sl_system_init.o
 .debug_line    0x0001546e      0x10c ./gecko_sdk_4.5.0/platform/service/system/src/sl_system_process_action.o

.debug_str      0x00000000     0xdf81
 .debug_str     0x00000000     0x1226 ./app.o
                               0x1385 (size before relaxing)
 .debug_str     0x00001226       0x4e ./main.o
                                0x237 (size before relaxing)
 .debug_str     0x00001274       0x5b ./autogen/sl_board_default_init.o
                                0x237 (size before relaxing)
 .debug_str     0x000012cf      0x829 ./autogen/sl_device_init_clocks.o
                                0xc53 (size before relaxing)
 .debug_str     0x00001af8      0x29a ./autogen/sl_event_handler.o
                                0xdc1 (size before relaxing)
 .debug_str     0x00001d92      0x1bb ./autogen/sl_power_manager_handler.o
                                0x3b2 (size before relaxing)
 .debug_str     0x00001f4d      0x197 ./autogen/sl_simple_button_instances.o
                                0x44c (size before relaxing)
 .debug_str     0x000020e4      0x11d ./autogen/sl_simple_led_instances.o
                                0x3b9 (size before relaxing)
 .debug_str     0x00002201      0xba4 ./autogen/sl_uartdrv_init.o
                               0x1005 (size before relaxing)
 .debug_str     0x00002da5       0xf6 ./gecko_sdk_4.5.0/app/common/util/app_button_press/app_button_press.o
                                0x4d4 (size before relaxing)
 .debug_str     0x00002e9b      0x29c ./gecko_sdk_4.5.0/hardware/board/src/sl_board_control_gpio.o
                                0x4e1 (size before relaxing)
 .debug_str     0x00003137       0x56 ./gecko_sdk_4.5.0/hardware/board/src/sl_board_init.o
                                0x650 (size before relaxing)
 .debug_str     0x0000318d      0x256 ./gecko_sdk_4.5.0/hardware/driver/configuration_over_swo/src/sl_cos.o
                                0xed2 (size before relaxing)
 .debug_str     0x000033e3      0x1c4 ./gecko_sdk_4.5.0/platform/Device/SiliconLabs/EFR32BG22/Source/startup_efr32bg22.o
                                0x3ac (size before relaxing)
 .debug_str     0x000035a7      0x9f2 ./gecko_sdk_4.5.0/platform/Device/SiliconLabs/EFR32BG22/Source/system_efr32bg22.o
                               0x156d (size before relaxing)
 .debug_str     0x00003f99       0x5d ./gecko_sdk_4.5.0/platform/common/src/sl_assert.o
                                0x1b0 (size before relaxing)
 .debug_str     0x00003ff6      0x11a ./gecko_sdk_4.5.0/platform/common/src/sl_slist.o
                                0x301 (size before relaxing)
 .debug_str     0x00004110       0xf7 ./gecko_sdk_4.5.0/platform/common/toolchain/src/sl_memory.o
                                0x2ea (size before relaxing)
 .debug_str     0x00004207       0x7d ./gecko_sdk_4.5.0/platform/driver/button/src/sl_button.o
                                0x31c (size before relaxing)
 .debug_str     0x00004284      0x1cb ./gecko_sdk_4.5.0/platform/driver/button/src/sl_simple_button.o
                               0x15ae (size before relaxing)
 .debug_str     0x0000444f      0x349 ./gecko_sdk_4.5.0/platform/driver/debug/src/sl_debug_swo.o
                               0x1668 (size before relaxing)
 .debug_str     0x00004798       0xa0 ./gecko_sdk_4.5.0/platform/driver/leddrv/src/sl_led.o
                                0x2ed (size before relaxing)
 .debug_str     0x00004838       0x7f ./gecko_sdk_4.5.0/platform/driver/leddrv/src/sl_simple_led.o
                               0x13fc (size before relaxing)
 .debug_str     0x000048b7      0xd05 ./gecko_sdk_4.5.0/platform/emdrv/dmadrv/src/dmadrv.o
                               0x10b5 (size before relaxing)
 .debug_str     0x000055bc      0x189 ./gecko_sdk_4.5.0/platform/emdrv/gpiointerrupt/src/gpiointerrupt.o
                               0x136c (size before relaxing)
 .debug_str     0x00005745     0x140a ./gecko_sdk_4.5.0/platform/emdrv/uartdrv/src/uartdrv.o
                               0x4264 (size before relaxing)
 .debug_str     0x00006b4f     0x1878 ./gecko_sdk_4.5.0/platform/emlib/src/em_cmu.o
                               0x35cd (size before relaxing)
 .debug_str     0x000083c7      0x2e8 ./gecko_sdk_4.5.0/platform/emlib/src/em_core.o
                                0xaae (size before relaxing)
 .debug_str     0x000086af      0x9e0 ./gecko_sdk_4.5.0/platform/emlib/src/em_emu.o
                               0x2d28 (size before relaxing)
 .debug_str     0x0000908f     0x1f99 ./gecko_sdk_4.5.0/platform/emlib/src/em_eusart.o
                               0x3c25 (size before relaxing)
 .debug_str     0x0000b028       0xc9 ./gecko_sdk_4.5.0/platform/emlib/src/em_gpio.o
                               0x1383 (size before relaxing)
 .debug_str     0x0000b0f1       0xcd ./gecko_sdk_4.5.0/platform/emlib/src/em_ldma.o
                               0x1400 (size before relaxing)
 .debug_str     0x0000b1be      0x4f1 ./gecko_sdk_4.5.0/platform/emlib/src/em_rtcc.o
                               0x24e3 (size before relaxing)
 .debug_str     0x0000b6af      0x33d ./gecko_sdk_4.5.0/platform/emlib/src/em_system.o
                               0x13c2 (size before relaxing)
 .debug_str     0x0000b9ec      0x3dd ./gecko_sdk_4.5.0/platform/emlib/src/em_usart.o
                               0x38ba (size before relaxing)
 .debug_str     0x0000bdc9       0x6d ./gecko_sdk_4.5.0/platform/service/device_init/src/sl_device_init_dcdc_s2.o
                                0x662 (size before relaxing)
 .debug_str     0x0000be36       0x75 ./gecko_sdk_4.5.0/platform/service/device_init/src/sl_device_init_emu_s2.o
                                0x842 (size before relaxing)
 .debug_str     0x0000beab      0x544 ./gecko_sdk_4.5.0/platform/service/device_init/src/sl_device_init_hfxo_s2.o
                                0xc06 (size before relaxing)
 .debug_str     0x0000c3ef      0x1e2 ./gecko_sdk_4.5.0/platform/service/device_init/src/sl_device_init_lfxo_s2.o
                                0x4e4 (size before relaxing)
 .debug_str     0x0000c5d1       0x6a ./gecko_sdk_4.5.0/platform/service/device_init/src/sl_device_init_nvic.o
                                0x7a4 (size before relaxing)
 .debug_str     0x0000c63b      0x18a ./gecko_sdk_4.5.0/platform/service/iostream/src/sl_iostream.o
                                0x40e (size before relaxing)
 .debug_str     0x0000c7c5      0x18e ./gecko_sdk_4.5.0/platform/service/iostream/src/sl_iostream_retarget_stdio.o
                                0x446 (size before relaxing)
 .debug_str     0x0000c953      0xb13 ./gecko_sdk_4.5.0/platform/service/power_manager/src/sl_power_manager.o
                               0x1108 (size before relaxing)
 .debug_str     0x0000d466      0x2b9 ./gecko_sdk_4.5.0/platform/service/power_manager/src/sl_power_manager_hal_s2.o
                               0x15f7 (size before relaxing)
 .debug_str     0x0000d71f      0x5e1 ./gecko_sdk_4.5.0/platform/service/sleeptimer/src/sl_sleeptimer.o
                                0xc61 (size before relaxing)
 .debug_str     0x0000dd00      0x1b7 ./gecko_sdk_4.5.0/platform/service/sleeptimer/src/sl_sleeptimer_hal_rtcc.o
                               0x1ccf (size before relaxing)
 .debug_str     0x0000deb7       0x60 ./gecko_sdk_4.5.0/platform/service/system/src/sl_system_init.o
                                0x206 (size before relaxing)
 .debug_str     0x0000df17       0x6a ./gecko_sdk_4.5.0/platform/service/system/src/sl_system_process_action.o
                                0x233 (size before relaxing)

.debug_frame    0x00000000     0x3908
 .debug_frame   0x00000000       0x50 ./app.o
 .debug_frame   0x00000050       0x28 ./main.o
 .debug_frame   0x00000078       0x20 ./autogen/sl_board_default_init.o
 .debug_frame   0x00000098       0x28 ./autogen/sl_device_init_clocks.o
 .debug_frame   0x000000c0       0xd4 ./autogen/sl_event_handler.o
 .debug_frame   0x00000194       0x64 ./autogen/sl_power_manager_handler.o
 .debug_frame   0x000001f8       0x30 ./autogen/sl_simple_button_instances.o
 .debug_frame   0x00000228       0x20 ./autogen/sl_simple_led_instances.o
 .debug_frame   0x00000248       0x4c ./autogen/sl_uartdrv_init.o
 .debug_frame   0x00000294       0xac ./gecko_sdk_4.5.0/app/common/util/app_button_press/app_button_press.o
 .debug_frame   0x00000340       0xf0 ./gecko_sdk_4.5.0/hardware/board/src/sl_board_control_gpio.o
 .debug_frame   0x00000430       0x3c ./gecko_sdk_4.5.0/hardware/board/src/sl_board_init.o
 .debug_frame   0x0000046c       0x8c ./gecko_sdk_4.5.0/hardware/driver/configuration_over_swo/src/sl_cos.o
 .debug_frame   0x000004f8       0x48 ./gecko_sdk_4.5.0/platform/Device/SiliconLabs/EFR32BG22/Source/startup_efr32bg22.o
 .debug_frame   0x00000540      0x118 ./gecko_sdk_4.5.0/platform/Device/SiliconLabs/EFR32BG22/Source/system_efr32bg22.o
 .debug_frame   0x00000658       0x20 ./gecko_sdk_4.5.0/platform/common/src/sl_assert.o
 .debug_frame   0x00000678       0xc8 ./gecko_sdk_4.5.0/platform/common/src/sl_slist.o
 .debug_frame   0x00000740       0x40 ./gecko_sdk_4.5.0/platform/common/toolchain/src/sl_memory.o
 .debug_frame   0x00000780       0x70 ./gecko_sdk_4.5.0/platform/driver/button/src/sl_button.o
 .debug_frame   0x000007f0       0xcc ./gecko_sdk_4.5.0/platform/driver/button/src/sl_simple_button.o
 .debug_frame   0x000008bc       0x9c ./gecko_sdk_4.5.0/platform/driver/debug/src/sl_debug_swo.o
 .debug_frame   0x00000958       0x60 ./gecko_sdk_4.5.0/platform/driver/leddrv/src/sl_led.o
 .debug_frame   0x000009b8       0xb8 ./gecko_sdk_4.5.0/platform/driver/leddrv/src/sl_simple_led.o
 .debug_frame   0x00000a70      0x208 ./gecko_sdk_4.5.0/platform/emdrv/dmadrv/src/dmadrv.o
 .debug_frame   0x00000c78       0xc8 ./gecko_sdk_4.5.0/platform/emdrv/gpiointerrupt/src/gpiointerrupt.o
 .debug_frame   0x00000d40      0x544 ./gecko_sdk_4.5.0/platform/emdrv/uartdrv/src/uartdrv.o
 .debug_frame   0x00001284      0x55c ./gecko_sdk_4.5.0/platform/emlib/src/em_cmu.o
 .debug_frame   0x000017e0      0x240 ./gecko_sdk_4.5.0/platform/emlib/src/em_core.o
 .debug_frame   0x00001a20      0x304 ./gecko_sdk_4.5.0/platform/emlib/src/em_emu.o
 .debug_frame   0x00001d24      0x1fc ./gecko_sdk_4.5.0/platform/emlib/src/em_eusart.o
 .debug_frame   0x00001f20      0x168 ./gecko_sdk_4.5.0/platform/emlib/src/em_gpio.o
 .debug_frame   0x00002088       0xe0 ./gecko_sdk_4.5.0/platform/emlib/src/em_ldma.o
 .debug_frame   0x00002168       0x98 ./gecko_sdk_4.5.0/platform/emlib/src/em_rtcc.o
 .debug_frame   0x00002200       0xd8 ./gecko_sdk_4.5.0/platform/emlib/src/em_system.o
 .debug_frame   0x000022d8      0x1ec ./gecko_sdk_4.5.0/platform/emlib/src/em_usart.o
 .debug_frame   0x000024c4       0x28 ./gecko_sdk_4.5.0/platform/service/device_init/src/sl_device_init_dcdc_s2.o
 .debug_frame   0x000024ec       0x2c ./gecko_sdk_4.5.0/platform/service/device_init/src/sl_device_init_emu_s2.o
 .debug_frame   0x00002518       0x34 ./gecko_sdk_4.5.0/platform/service/device_init/src/sl_device_init_hfxo_s2.o
 .debug_frame   0x0000254c       0x30 ./gecko_sdk_4.5.0/platform/service/device_init/src/sl_device_init_lfxo_s2.o
 .debug_frame   0x0000257c       0x28 ./gecko_sdk_4.5.0/platform/service/device_init/src/sl_device_init_nvic.o
 .debug_frame   0x000025a4       0xfc ./gecko_sdk_4.5.0/platform/service/iostream/src/sl_iostream.o
 .debug_frame   0x000026a0       0xb0 ./gecko_sdk_4.5.0/platform/service/iostream/src/sl_iostream_retarget_stdio.o
 .debug_frame   0x00002750      0x2b8 ./gecko_sdk_4.5.0/platform/service/power_manager/src/sl_power_manager.o
 .debug_frame   0x00002a08      0x158 ./gecko_sdk_4.5.0/platform/service/power_manager/src/sl_power_manager_hal_s2.o
 .debug_frame   0x00002b60      0x3ac ./gecko_sdk_4.5.0/platform/service/sleeptimer/src/sl_sleeptimer.o
 .debug_frame   0x00002f0c      0x140 ./gecko_sdk_4.5.0/platform/service/sleeptimer/src/sl_sleeptimer_hal_rtcc.o
 .debug_frame   0x0000304c       0x2c ./gecko_sdk_4.5.0/platform/service/system/src/sl_system_init.o
 .debug_frame   0x00003078       0x2c ./gecko_sdk_4.5.0/platform/service/system/src/sl_system_process_action.o
 .debug_frame   0x000030a4       0x2c c:/siliconlabs/simplicitystudio/v5/developer/toolchains/gnu_arm/12.2.rel1_2023.7/bin/../lib/gcc/arm-none-eabi/12.2.1/thumb/v8-m.main+fp/hard\libgcc.a(_aeabi_uldivmod.o)
 .debug_frame   0x000030d0       0x38 c:/siliconlabs/simplicitystudio/v5/developer/toolchains/gnu_arm/12.2.rel1_2023.7/bin/../lib/gcc/arm-none-eabi/12.2.1/thumb/v8-m.main+fp/hard\libgcc.a(_udivmoddi4.o)
 .debug_frame   0x00003108       0x28 c:/siliconlabs/simplicitystudio/v5/developer/toolchains/gnu_arm/12.2.rel1_2023.7/bin/../lib/gcc/arm-none-eabi/12.2.1/thumb/v8-m.main+fp/hard\libc_nano.a(libc_a-exit.o)
 .debug_frame   0x00003130      0x144 c:/siliconlabs/simplicitystudio/v5/developer/toolchains/gnu_arm/12.2.rel1_2023.7/bin/../lib/gcc/arm-none-eabi/12.2.1/thumb/v8-m.main+fp/hard\libc_nano.a(libc_a-findfp.o)
 .debug_frame   0x00003274       0x34 c:/siliconlabs/simplicitystudio/v5/developer/toolchains/gnu_arm/12.2.rel1_2023.7/bin/../lib/gcc/arm-none-eabi/12.2.1/thumb/v8-m.main+fp/hard\libc_nano.a(libc_a-fwalk.o)
 .debug_frame   0x000032a8       0x6c c:/siliconlabs/simplicitystudio/v5/developer/toolchains/gnu_arm/12.2.rel1_2023.7/bin/../lib/gcc/arm-none-eabi/12.2.1/thumb/v8-m.main+fp/hard\libc_nano.a(libc_a-printf.o)
 .debug_frame   0x00003314       0x88 c:/siliconlabs/simplicitystudio/v5/developer/toolchains/gnu_arm/12.2.rel1_2023.7/bin/../lib/gcc/arm-none-eabi/12.2.1/thumb/v8-m.main+fp/hard\libc_nano.a(libc_a-stdio.o)
 .debug_frame   0x0000339c       0x20 c:/siliconlabs/simplicitystudio/v5/developer/toolchains/gnu_arm/12.2.rel1_2023.7/bin/../lib/gcc/arm-none-eabi/12.2.1/thumb/v8-m.main+fp/hard\libc_nano.a(libc_a-memset.o)
 .debug_frame   0x000033bc       0x2c c:/siliconlabs/simplicitystudio/v5/developer/toolchains/gnu_arm/12.2.rel1_2023.7/bin/../lib/gcc/arm-none-eabi/12.2.1/thumb/v8-m.main+fp/hard\libc_nano.a(libc_a-closer.o)
 .debug_frame   0x000033e8       0x38 c:/siliconlabs/simplicitystudio/v5/developer/toolchains/gnu_arm/12.2.rel1_2023.7/bin/../lib/gcc/arm-none-eabi/12.2.1/thumb/v8-m.main+fp/hard\libc_nano.a(libc_a-reent.o)
 .debug_frame   0x00003420       0x2c c:/siliconlabs/simplicitystudio/v5/developer/toolchains/gnu_arm/12.2.rel1_2023.7/bin/../lib/gcc/arm-none-eabi/12.2.1/thumb/v8-m.main+fp/hard\libc_nano.a(libc_a-lseekr.o)
 .debug_frame   0x0000344c       0x2c c:/siliconlabs/simplicitystudio/v5/developer/toolchains/gnu_arm/12.2.rel1_2023.7/bin/../lib/gcc/arm-none-eabi/12.2.1/thumb/v8-m.main+fp/hard\libc_nano.a(libc_a-readr.o)
 .debug_frame   0x00003478       0x2c c:/siliconlabs/simplicitystudio/v5/developer/toolchains/gnu_arm/12.2.rel1_2023.7/bin/../lib/gcc/arm-none-eabi/12.2.1/thumb/v8-m.main+fp/hard\libc_nano.a(libc_a-writer.o)
 .debug_frame   0x000034a4       0x2c c:/siliconlabs/simplicitystudio/v5/developer/toolchains/gnu_arm/12.2.rel1_2023.7/bin/../lib/gcc/arm-none-eabi/12.2.1/thumb/v8-m.main+fp/hard\libc_nano.a(libc_a-init.o)
 .debug_frame   0x000034d0       0xb0 c:/siliconlabs/simplicitystudio/v5/developer/toolchains/gnu_arm/12.2.rel1_2023.7/bin/../lib/gcc/arm-none-eabi/12.2.1/thumb/v8-m.main+fp/hard\libc_nano.a(libc_a-lock.o)
 .debug_frame   0x00003580       0x38 c:/siliconlabs/simplicitystudio/v5/developer/toolchains/gnu_arm/12.2.rel1_2023.7/bin/../lib/gcc/arm-none-eabi/12.2.1/thumb/v8-m.main+fp/hard\libc_nano.a(libc_a-freer.o)
 .debug_frame   0x000035b8       0x4c c:/siliconlabs/simplicitystudio/v5/developer/toolchains/gnu_arm/12.2.rel1_2023.7/bin/../lib/gcc/arm-none-eabi/12.2.1/thumb/v8-m.main+fp/hard\libc_nano.a(libc_a-mallocr.o)
 .debug_frame   0x00003604       0x30 c:/siliconlabs/simplicitystudio/v5/developer/toolchains/gnu_arm/12.2.rel1_2023.7/bin/../lib/gcc/arm-none-eabi/12.2.1/thumb/v8-m.main+fp/hard\libc_nano.a(libc_a-mlock.o)
 .debug_frame   0x00003634       0xa8 c:/siliconlabs/simplicitystudio/v5/developer/toolchains/gnu_arm/12.2.rel1_2023.7/bin/../lib/gcc/arm-none-eabi/12.2.1/thumb/v8-m.main+fp/hard\libc_nano.a(libc_a-nano-vfprintf.o)
 .debug_frame   0x000036dc       0x60 c:/siliconlabs/simplicitystudio/v5/developer/toolchains/gnu_arm/12.2.rel1_2023.7/bin/../lib/gcc/arm-none-eabi/12.2.1/thumb/v8-m.main+fp/hard\libc_nano.a(libc_a-nano-vfprintf_i.o)
 .debug_frame   0x0000373c       0x5c c:/siliconlabs/simplicitystudio/v5/developer/toolchains/gnu_arm/12.2.rel1_2023.7/bin/../lib/gcc/arm-none-eabi/12.2.1/thumb/v8-m.main+fp/hard\libc_nano.a(libc_a-fflush.o)
 .debug_frame   0x00003798       0x40 c:/siliconlabs/simplicitystudio/v5/developer/toolchains/gnu_arm/12.2.rel1_2023.7/bin/../lib/gcc/arm-none-eabi/12.2.1/thumb/v8-m.main+fp/hard\libc_nano.a(libc_a-wbuf.o)
 .debug_frame   0x000037d8       0x2c c:/siliconlabs/simplicitystudio/v5/developer/toolchains/gnu_arm/12.2.rel1_2023.7/bin/../lib/gcc/arm-none-eabi/12.2.1/thumb/v8-m.main+fp/hard\libc_nano.a(libc_a-wsetup.o)
 .debug_frame   0x00003804       0x2c c:/siliconlabs/simplicitystudio/v5/developer/toolchains/gnu_arm/12.2.rel1_2023.7/bin/../lib/gcc/arm-none-eabi/12.2.1/thumb/v8-m.main+fp/hard\libc_nano.a(libc_a-sbrkr.o)
 .debug_frame   0x00003830       0x28 c:/siliconlabs/simplicitystudio/v5/developer/toolchains/gnu_arm/12.2.rel1_2023.7/bin/../lib/gcc/arm-none-eabi/12.2.1/thumb/v8-m.main+fp/hard\libc_nano.a(libc_a-memchr-stub.o)
 .debug_frame   0x00003858       0x58 c:/siliconlabs/simplicitystudio/v5/developer/toolchains/gnu_arm/12.2.rel1_2023.7/bin/../lib/gcc/arm-none-eabi/12.2.1/thumb/v8-m.main+fp/hard\libc_nano.a(libc_a-makebuf.o)
 .debug_frame   0x000038b0       0x2c c:/siliconlabs/simplicitystudio/v5/developer/toolchains/gnu_arm/12.2.rel1_2023.7/bin/../lib/gcc/arm-none-eabi/12.2.1/thumb/v8-m.main+fp/hard\libc_nano.a(libc_a-fstatr.o)
 .debug_frame   0x000038dc       0x2c c:/siliconlabs/simplicitystudio/v5/developer/toolchains/gnu_arm/12.2.rel1_2023.7/bin/../lib/gcc/arm-none-eabi/12.2.1/thumb/v8-m.main+fp/hard\libc_nano.a(libc_a-isattyr.o)
